ccopy_reg
_reconstructor
p0
(chelpers
ClassDict
p1
c__builtin__
dict
p2
(dp3
S'TALENTS'
p4
(dp5
S'Frogenglut_A2u'
p6
g0
(g1
g2
(dp7
S'row'
p8
I3
sS'CRC32'
p9
I-595421952
sS'prereqs'
p10
(lp11
I1542635389
asS'faction'
p12
S'B'
p13
sS'active'
p14
S'Passive'
p15
sS'talent_id'
p16
S'Frogenglut_A2u'
p17
sS'hero_id'
p18
S'frogenglut'
p19
stp20
Rp21
sS'Vedun_A1u'
p22
g0
(g1
g2
(dp23
g8
I2
sg9
I2035991847
sg10
(lp24
I-1994919078
asg12
S'B'
p25
sg14
S'Passive'
p26
sg16
S'Vedun_A1u'
p27
sg18
S'witchdoctor'
p28
stp29
Rp30
sS'Werewolf_A4'
p31
g0
(g1
g2
(dp32
g8
I3
sg9
I1984327990
sg10
(lp33
sg12
S'B'
p34
sg14
S'Active'
p35
sg16
S'Werewolf_A4'
p36
sg18
S'werewolf'
p37
stp38
Rp39
sS'Werewolf_A2'
p40
g0
(g1
g2
(dp41
g8
I1
sg9
I-1624910845
sg10
(lp42
sg12
S'B'
p43
sg14
S'Active'
p44
sg16
S'Werewolf_A2'
p45
sg18
S'werewolf'
p46
stp47
Rp48
sS'Werewolf_A3'
p49
g0
(g1
g2
(dp50
g8
I2
sg9
I-400366443
sg10
(lp51
sg12
S'B'
p52
sg14
S'Active'
p53
sg16
S'Werewolf_A3'
p54
sg18
S'werewolf'
p55
stp56
Rp57
sS'Werewolf_A0'
p58
g0
(g1
g2
(dp59
g8
I1
sg9
I1898689839
sg10
(lp60
sg12
S'B'
p61
sg14
S'Passive'
p62
sg16
S'Werewolf_A0'
p63
sg18
S'werewolf'
p64
stp65
Rp66
sS'Werewolf_A1'
p67
g0
(g1
g2
(dp68
g8
I1
sg9
I103581113
sg10
(lp69
sg12
S'B'
p70
sg14
S'Passive'
p71
sg16
S'Werewolf_A1'
p72
sg18
S'werewolf'
p73
stp74
Rp75
sS'Thunder_A3_Upg'
p76
g0
(g1
g2
(dp77
g8
I3
sg9
I-675121721
sg10
(lp78
I-1188794867
asg12
S'B'
p79
sg14
S'Passive'
p80
sg16
S'Thunder_A3_Upg'
p81
sg18
S'thundergod'
p82
stp83
Rp84
sS'Unicorn_A1u'
p85
g0
(g1
g2
(dp86
g8
I2
sg9
I452347654
sg10
(lp87
I603523911
asg12
S'B'
p88
sg14
S'Passive'
p89
sg16
S'Unicorn_A1u'
p90
sg18
S'unicorn'
p91
stp92
Rp93
sS'Bard_A4u'
p94
g0
(g1
g2
(dp95
g8
I1
sg9
I1886432936
sg10
(lp96
I355489622
asg12
S'B'
p97
sg14
S'Passive'
p98
sg16
S'Bard_A4u'
p99
sg18
S'bard'
p100
stp101
Rp102
sS'Ratcatcher_A4_Upg'
p103
g0
(g1
g2
(dp104
g8
I4
sg9
I-82318528
sg10
(lp105
I-1554524087
asg12
S'B'
p106
sg14
S'Passive'
p107
sg16
S'Ratcatcher_A4_Upg'
p108
sg18
S'ratcatcher'
p109
stp110
Rp111
sS'Hunter_A1u'
p112
g0
(g1
g2
(dp113
g8
I2
sg9
I-692406195
sg10
(lp114
I1668404723
asg12
S'B'
p115
sg14
S'Passive'
p116
sg16
S'Hunter_A1u'
p117
sg18
S'hunter'
p118
stp119
Rp120
sS'Rockman_A3_Upg'
p121
g0
(g1
g2
(dp122
g8
I3
sg9
I1257013973
sg10
(lp123
I-252216409
asg12
S'B'
p124
sg14
S'Passive'
p125
sg16
S'Rockman_A3_Upg'
p126
sg18
S'rockman'
p127
stp128
Rp129
sS'GhostLord_A2u'
p130
g0
(g1
g2
(dp131
g8
I3
sg9
I-1804289517
sg10
(lp132
I535554010
asg12
S'B'
p133
sg14
S'Passive'
p134
sg16
S'GhostLord_A2u'
p135
sg18
S'ghostlord'
p136
stp137
Rp138
sS'Highlander_A3u'
p139
g0
(g1
g2
(dp140
g8
I2
sg9
I1268919532
sg10
(lp141
I-1449993354
asg12
S'B'
p142
sg14
S'Passive'
p143
sg16
S'Highlander_A3u'
p144
sg18
S'highlander'
p145
stp146
Rp147
sS'G009'
p148
g0
(g1
g2
(dp149
g8
I3
sg9
I-2085624589
sg10
(lp150
sg12
Nsg14
S'Passive'
p151
sg16
g148
sg18
Nstp152
Rp153
sS'G008'
p154
g0
(g1
g2
(dp155
g8
I1
sg9
I-190262171
sg10
(lp156
sg12
Nsg14
S'Passive'
p157
sg16
g154
sg18
Nstp158
Rp159
sS'Warlord_A2u'
p160
g0
(g1
g2
(dp161
g8
I2
sg9
I632889384
sg10
(lp162
I-644286239
asg12
S'B'
p163
sg14
S'Passive'
p164
sg16
S'Warlord_A2u'
p165
sg18
S'warlord'
p166
stp167
Rp168
sS'G001'
p169
g0
(g1
g2
(dp170
g8
I1
sg9
I-1921749823
sg10
(lp171
sg12
Nsg14
S'Passive'
p172
sg16
g169
sg18
Nstp173
Rp174
sS'Werewolf_A2u'
p175
g0
(g1
g2
(dp176
g8
I2
sg9
I1811619408
sg10
(lp177
I-1624910845
asg12
S'B'
p178
sg14
S'Passive'
p179
sg16
S'Werewolf_A2u'
p180
sg18
S'werewolf'
p181
stp182
Rp183
sS'G003'
p184
g0
(g1
g2
(dp185
g8
I1
sg9
I1668943341
sg10
(lp186
sg12
Nsg14
S'Passive'
p187
sg16
g184
sg18
Nstp188
Rp189
sS'G002'
p190
g0
(g1
g2
(dp191
g8
I1
sg9
I343752059
sg10
(lp192
sg12
Nsg14
S'Passive'
p193
sg16
g190
sg18
Nstp194
Rp195
sS'G005'
p196
g0
(g1
g2
(dp197
g8
I1
sg9
I-1978029864
sg10
(lp198
sg12
Nsg14
S'Passive'
p199
sg16
g196
sg18
Nstp200
Rp201
sS'G004'
p202
g0
(g1
g2
(dp203
g8
I1
sg9
I-48326578
sg10
(lp204
sg12
Nsg14
S'Passive'
p205
sg16
g202
sg18
Nstp206
Rp207
sS'G006'
p208
g0
(g1
g2
(dp209
g8
I3
sg9
I319879522
sg10
(lp210
sg12
Nsg14
S'Passive'
p211
sg16
g208
sg18
Nstp212
Rp213
sS'Vedun_A0'
p214
g0
(g1
g2
(dp215
g8
I1
sg9
I-32455732
sg10
(lp216
sg12
S'B'
p217
sg14
S'Passive'
p218
sg16
S'Vedun_A0'
p219
sg18
S'witchdoctor'
p220
stp221
Rp222
sS'Vedun_A1'
p223
g0
(g1
g2
(dp224
g8
I1
sg9
I-1994919078
sg10
(lp225
sg12
S'B'
p226
sg14
S'Active'
p227
sg16
S'Vedun_A1'
p228
sg18
S'witchdoctor'
p229
stp230
Rp231
sS'Vedun_A2'
p232
g0
(g1
g2
(dp233
g8
I1
sg9
I270443232
sg10
(lp234
sg12
S'B'
p235
sg14
S'Passive'
p236
sg16
S'Vedun_A2'
p237
sg18
S'witchdoctor'
p238
stp239
Rp240
sS'Vedun_A3'
p241
g0
(g1
g2
(dp242
g8
I2
sg9
I1729729142
sg10
(lp243
sg12
S'B'
p244
sg14
S'Active'
p245
sg16
S'Vedun_A3'
p246
sg18
S'witchdoctor'
p247
stp248
Rp249
sS'Vedun_A4'
p250
g0
(g1
g2
(dp251
g8
I3
sg9
I-109246507
sg10
(lp252
sg12
S'B'
p253
sg14
S'Active'
p254
sg16
S'Vedun_A4'
p255
sg18
S'witchdoctor'
p256
stp257
Rp258
sS'G023'
p259
g0
(g1
g2
(dp260
g8
I2
sg9
I1363963759
sg10
(lp261
sg12
Nsg14
S'Passive'
p262
sg16
g259
sg18
Nstp263
Rp264
sS'Naga_A2u1'
p265
g0
(g1
g2
(dp266
g8
I3
sg9
I-600630849
sg10
(lp267
I-1540525865
asg12
S'B'
p268
sg14
S'Passive'
p269
sg16
S'Naga_A2u1'
p270
sg18
S'naga'
p271
stp272
Rp273
sS'Naga_A2'
p274
g0
(g1
g2
(dp275
g8
I2
sg9
I-1540525865
sg10
(lp276
sg12
S'B'
p277
sg14
S'Passive'
p278
sg16
S'Naga_A2'
p279
sg18
S'naga'
p280
stp281
Rp282
sS'Hunter_A2'
p283
g0
(g1
g2
(dp284
g8
I1
sg9
I-92765111
sg10
(lp285
sg12
S'B'
p286
sg14
S'Active'
p287
sg16
S'Hunter_A2'
p288
sg18
S'hunter'
p289
stp290
Rp291
sS'Naga_A3'
p292
g0
(g1
g2
(dp293
g8
I2
sg9
I-752205759
sg10
(lp294
sg12
S'B'
p295
sg14
S'Passive'
p296
sg16
S'Naga_A3'
p297
sg18
S'naga'
p298
stp299
Rp300
sS'Ratcatcher_A2_Upg1'
p301
g0
(g1
g2
(dp302
g8
I2
sg9
I597842641
sg10
(lp303
I1244953980
asg12
S'B'
p304
sg14
S'Passive'
p305
sg16
S'Ratcatcher_A2_Upg1'
p306
sg18
S'ratcatcher'
p307
stp308
Rp309
sS'Naga_A0'
p310
g0
(g1
g2
(dp311
g8
I1
sg9
I1243812347
sg10
(lp312
sg12
S'B'
p313
sg14
S'Passive'
p314
sg16
S'Naga_A0'
p315
sg18
S'naga'
p316
stp317
Rp318
sS'Invisible_A2u1'
p319
g0
(g1
g2
(dp320
g8
I2
sg9
I-60627234
sg10
(lp321
I1585889052
asg12
S'B'
p322
sg14
S'Passive'
p323
sg16
S'Invisible_A2u1'
p324
sg18
S'invisible'
p325
stp326
Rp327
sS'Invisible_A2u2'
p328
g0
(g1
g2
(dp329
g8
I3
sg9
I1701558116
sg10
(lp330
I-1333207504
asg12
S'B'
p331
sg14
S'Passive'
p332
sg16
S'Invisible_A2u2'
p333
sg18
S'invisible'
p334
stp335
Rp336
sS'Naga_A1'
p337
g0
(g1
g2
(dp338
g8
I1
sg9
I1025778029
sg10
(lp339
sg12
S'B'
p340
sg14
S'Active'
p341
sg16
S'Naga_A1'
p342
sg18
S'naga'
p343
stp344
Rp345
sS'Healer_A4_Upg'
p346
g0
(g1
g2
(dp347
g8
I3
sg9
I-1161576401
sg10
(lp348
I1986912328
asg12
S'B'
p349
sg14
S'Passive'
p350
sg16
S'Healer_A4_Upg'
p351
sg18
S'healer'
p352
stp353
Rp354
sS'G078'
p355
g0
(g1
g2
(dp356
g8
I5
sg9
I-1142340958
sg10
(lp357
sg12
Nsg14
S'Passive'
p358
sg16
g355
sg18
Nstp359
Rp360
sS'G079'
p361
g0
(g1
g2
(dp362
g8
I4
sg9
I-856788428
sg10
(lp363
sg12
Nsg14
S'Passive'
p364
sg16
g361
sg18
Nstp365
Rp366
sS'G074'
p367
g0
(g1
g2
(dp368
g8
I3
sg9
I-1302393207
sg10
(lp369
sg12
Nsg14
S'Active'
p370
sg16
g367
sg18
Nstp371
Rp372
sS'G075'
p373
g0
(g1
g2
(dp374
g8
I4
sg9
I-984072673
sg10
(lp375
sg12
Nsg14
S'Active'
p376
sg16
g373
sg18
Nstp377
Rp378
sS'G076'
p379
g0
(g1
g2
(dp380
g8
I2
sg9
I1548840869
sg10
(lp381
sg12
Nsg14
S'Active'
p382
sg16
g379
sg18
Nstp383
Rp384
sS'G077'
p385
g0
(g1
g2
(dp386
g8
I5
sg9
I727080755
sg10
(lp387
sg12
Nsg14
S'Passive'
p388
sg16
g385
sg18
Nstp389
Rp390
sS'G070'
p391
g0
(g1
g2
(dp392
g8
I6
sg9
I-1254962544
sg10
(lp393
sg12
Nsg14
S'Passive'
p394
sg16
g391
sg18
Nstp395
Rp396
sS'G071'
p397
g0
(g1
g2
(dp398
g8
I5
sg9
I-1036649978
sg10
(lp399
sg12
Nsg14
S'Passive'
p400
sg16
g397
sg18
Nstp401
Rp402
sS'G072'
p403
g0
(g1
g2
(dp404
g8
I6
sg9
I1530702780
sg10
(lp405
sg12
Nsg14
S'Passive'
p406
sg16
g403
sg18
Nstp407
Rp408
sS'G073'
p409
g0
(g1
g2
(dp410
g8
I6
sg9
I742103850
sg10
(lp411
sg12
Nsg14
S'Passive'
p412
sg16
g409
sg18
Nstp413
Rp414
sS'Rockman_A1'
p415
g0
(g1
g2
(dp416
g8
I1
sg9
I519641739
sg10
(lp417
sg12
S'B'
p418
sg14
S'Active'
p419
sg16
S'Rockman_A1'
p420
sg18
S'rockman'
p421
stp422
Rp423
sS'Bard_A0'
p424
g0
(g1
g2
(dp425
g8
I1
sg9
I308122447
sg10
(lp426
sg12
S'B'
p427
sg14
S'Passive'
p428
sg16
S'Bard_A0'
p429
sg18
S'bard'
p430
stp431
Rp432
sS'Bard_A1'
p433
g0
(g1
g2
(dp434
g8
I1
sg9
I1700439001
sg10
(lp435
sg12
S'B'
p436
sg14
S'Active'
p437
sg16
S'Bard_A1'
p438
sg18
S'bard'
p439
stp440
Rp441
sS'Bard_A2'
p442
g0
(g1
g2
(dp443
g8
I1
sg9
I-61607325
sg10
(lp444
sg12
S'B'
p445
sg14
S'Active'
p446
sg16
S'Bard_A2'
p447
sg18
S'bard'
p448
stp449
Rp450
sS'Bard_A3'
p451
g0
(g1
g2
(dp452
g8
I1
sg9
I-1957379339
sg10
(lp453
sg12
S'B'
p454
sg14
S'Active'
p455
sg16
S'Bard_A3'
p456
sg18
S'bard'
p457
stp458
Rp459
sS'Bard_A4'
p460
g0
(g1
g2
(dp461
g8
I1
sg9
I355489622
sg10
(lp462
sg12
S'B'
p463
sg14
S'Active'
p464
sg16
S'Bard_A4'
p465
sg18
S'bard'
p466
stp467
Rp468
sS'Thunder_A0'
p469
g0
(g1
g2
(dp470
g8
I1
sg9
I539836343
sg10
(lp471
sg12
S'B'
p472
sg14
S'Passive'
p473
sg16
S'Thunder_A0'
p474
sg18
S'thundergod'
p475
stp476
Rp477
sS'Thunder_A1'
p478
g0
(g1
g2
(dp479
g8
I1
sg9
I1462374177
sg10
(lp480
sg12
S'B'
p481
sg14
S'Active'
p482
sg16
S'Thunder_A1'
p483
sg18
S'thundergod'
p484
stp485
Rp486
sS'Thunder_A2'
p487
g0
(g1
g2
(dp488
g8
I1
sg9
I-836542821
sg10
(lp489
sg12
S'B'
p490
sg14
S'Active'
p491
sg16
S'Thunder_A2'
p492
sg18
S'thundergod'
p493
stp494
Rp495
sS'Thunder_A3'
p496
g0
(g1
g2
(dp497
g8
I2
sg9
I-1188794867
sg10
(lp498
sg12
S'B'
p499
sg14
S'Active'
p500
sg16
S'Thunder_A3'
p501
sg18
S'thundergod'
p502
stp503
Rp504
sS'Thunder_A4'
p505
g0
(g1
g2
(dp506
g8
I3
sg9
I658570158
sg10
(lp507
sg12
S'B'
p508
sg14
S'Active'
p509
sg16
S'Thunder_A4'
p510
sg18
S'thundergod'
p511
stp512
Rp513
sS'SnowQueen_A1u'
p514
g0
(g1
g2
(dp515
g8
I2
sg9
I-1882793360
sg10
(lp516
I-1406206065
asg12
S'B'
p517
sg14
S'Passive'
p518
sg16
S'SnowQueen_A1u'
p519
sg18
S'snowqueen'
p520
stp521
Rp522
sS'Night_A4'
p523
g0
(g1
g2
(dp524
g8
I3
sg9
I-1329344167
sg10
(lp525
sg12
S'B'
p526
sg14
S'Active'
p527
sg16
S'Night_A4'
p528
sg18
S'night'
p529
stp530
Rp531
sS'Night_A2'
p532
g0
(g1
g2
(dp533
g8
I1
sg9
I1503687788
sg10
(lp534
sg12
S'B'
p535
sg14
S'Active'
p536
sg16
S'Night_A2'
p537
sg18
S'night'
p538
stp539
Rp540
sS'Night_A3'
p541
g0
(g1
g2
(dp542
g8
I2
sg9
I782714106
sg10
(lp543
sg12
S'B'
p544
sg14
S'Passive'
p545
sg16
S'Night_A3'
p546
sg18
S'night'
p547
stp548
Rp549
sS'Night_A0'
p550
g0
(g1
g2
(dp551
g8
I1
sg9
I-1213328064
sg10
(lp552
sg12
S'B'
p553
sg14
S'Passive'
p554
sg16
S'Night_A0'
p555
sg18
S'night'
p556
stp557
Rp558
sS'Night_A1'
p559
g0
(g1
g2
(dp560
g8
I1
sg9
I-1062656554
sg10
(lp561
sg12
S'B'
p562
sg14
S'Active'
p563
sg16
S'Night_A1'
p564
sg18
S'night'
p565
stp566
Rp567
sS'Frogenglut_A4'
p568
g0
(g1
g2
(dp569
g8
I3
sg9
I-1299113400
sg10
(lp570
sg12
S'B'
p571
sg14
S'Active'
p572
sg16
S'Frogenglut_A4'
p573
sg18
S'frogenglut'
p574
stp575
Rp576
sS'Frogenglut_A2'
p577
g0
(g1
g2
(dp578
g8
I2
sg9
I1542635389
sg10
(lp579
sg12
S'B'
p580
sg14
S'Active'
p581
sg16
S'Frogenglut_A2'
p582
sg18
S'frogenglut'
p583
stp584
Rp585
sS'Frogenglut_A3'
p586
g0
(g1
g2
(dp587
g8
I1
sg9
I754290667
sg10
(lp588
sg12
S'B'
p589
sg14
S'Passive'
p590
sg16
S'Frogenglut_A3'
p591
sg18
S'frogenglut'
p592
stp593
Rp594
sS'Frogenglut_A0'
p595
g0
(g1
g2
(dp596
g8
I1
sg9
I-1241719215
sg10
(lp597
sg12
S'B'
p598
sg14
S'Passive'
p599
sg16
S'Frogenglut_A0'
p600
sg18
S'frogenglut'
p601
stp602
Rp603
sS'Frogenglut_A1'
p604
g0
(g1
g2
(dp605
g8
I1
sg9
I-1023676729
sg10
(lp606
sg12
S'B'
p607
sg14
S'Active'
p608
sg16
S'Frogenglut_A1'
p609
sg18
S'frogenglut'
p610
stp611
Rp612
sS'Night_A1u'
p613
g0
(g1
g2
(dp614
g8
I2
sg9
I-1658997510
sg10
(lp615
I-1062656554
asg12
S'B'
p616
sg14
S'Passive'
p617
sg16
S'Night_A1u'
p618
sg18
S'night'
p619
stp620
Rp621
sS'Rockman_A1_Upg'
p622
g0
(g1
g2
(dp623
g8
I2
sg9
I808243637
sg10
(lp624
I519641739
asg12
S'B'
p625
sg14
S'Passive'
p626
sg16
S'Rockman_A1_Upg'
p627
sg18
S'rockman'
p628
stp629
Rp630
sS'Inventor_A3u'
p631
g0
(g1
g2
(dp632
g8
I1
sg9
I-1462069483
sg10
(lp633
I-1306382082
asg12
S'B'
p634
sg14
S'Passive'
p635
sg16
S'Inventor_A3u'
p636
sg18
S'inventor'
p637
stp638
Rp639
sS'Prince_A2u'
p640
g0
(g1
g2
(dp641
g8
I2
sg9
I1618814285
sg10
(lp642
I-1027479348
asg12
S'B'
p643
sg14
S'Passive'
p644
sg16
S'Prince_A2u'
p645
sg18
S'prince'
p646
stp647
Rp648
sS'Naga_A4u1'
p649
g0
(g1
g2
(dp650
g8
I4
sg9
I-658610931
sg10
(lp651
I1297012194
asg12
S'B'
p652
sg14
S'Passive'
p653
sg16
S'Naga_A4u1'
p654
sg18
S'naga'
p655
stp656
Rp657
sS'Unicorn_A4'
p658
g0
(g1
g2
(dp659
g8
I3
sg9
I1402208200
sg10
(lp660
sg12
S'B'
p661
sg14
S'Active'
p662
sg16
S'Unicorn_A4'
p663
sg18
S'unicorn'
p664
stp665
Rp666
sS'G030'
p667
g0
(g1
g2
(dp668
g8
I2
sg9
I-782364780
sg10
(lp669
sg12
Nsg14
S'Passive'
p670
sg16
g667
sg18
Nstp671
Rp672
sS'G031'
p673
g0
(g1
g2
(dp674
g8
I2
sg9
I-1504100606
sg10
(lp675
sg12
Nsg14
S'Passive'
p676
sg16
g673
sg18
Nstp677
Rp678
sS'G032'
p679
g0
(g1
g2
(dp680
g8
I3
sg9
I1062235832
sg10
(lp681
sg12
Nsg14
S'Passive'
p682
sg16
g679
sg18
Nstp683
Rp684
sS'G036'
p685
g0
(g1
g2
(dp686
g8
I3
sg9
I943565473
sg10
(lp687
sg12
Nsg14
S'Passive'
p688
sg16
g685
sg18
Nstp689
Rp690
sS'G037'
p691
g0
(g1
g2
(dp692
g8
I2
sg9
I1329240631
sg10
(lp693
sg12
Nsg14
S'Passive'
p694
sg16
g691
sg18
Nstp695
Rp696
sS'G038'
p697
g0
(g1
g2
(dp698
g8
I3
sg9
I-544897114
sg10
(lp699
sg12
Nsg14
S'Passive'
p700
sg16
g697
sg18
Nstp701
Rp702
sS'G039'
p703
g0
(g1
g2
(dp704
g8
I3
sg9
I-1467828432
sg10
(lp705
sg12
Nsg14
S'Passive'
p706
sg16
g703
sg18
Nstp707
Rp708
sS'Unicorn_A3'
p709
g0
(g1
g2
(dp710
g8
I1
sg9
I-839423381
sg10
(lp711
sg12
S'B'
p712
sg14
S'Active'
p713
sg16
S'Unicorn_A3'
p714
sg18
S'unicorn'
p715
stp716
Rp717
sS'Marine_A3u'
p718
g0
(g1
g2
(dp719
g8
I2
sg9
I1720934605
sg10
(lp720
I-1708034167
asg12
S'B'
p721
sg14
S'Passive'
p722
sg16
S'Marine_A3u'
p723
sg18
S'marine'
p724
stp725
Rp726
sS'Mage_A3u'
p727
g0
(g1
g2
(dp728
g8
I3
sg9
I-2006282149
sg10
(lp729
I1839254923
asg12
S'B'
p730
sg14
S'Passive'
p731
sg16
S'Mage_A3u'
p732
sg18
S'mage'
p733
stp734
Rp735
sS'Unicorn_A0'
p736
g0
(g1
g2
(dp737
g8
I1
sg9
I1425947601
sg10
(lp738
sg12
S'B'
p739
sg14
S'Passive'
p740
sg16
S'Unicorn_A0'
p741
sg18
S'unicorn'
p742
stp743
Rp744
sS'Unicorn_A1'
p745
g0
(g1
g2
(dp746
g8
I1
sg9
I603523911
sg10
(lp747
sg12
S'B'
p748
sg14
S'Active'
p749
sg16
S'Unicorn_A1'
p750
sg18
S'unicorn'
p751
stp752
Rp753
sS'Thunder_A1_Upg'
p754
g0
(g1
g2
(dp755
g8
I2
sg9
I-1392367961
sg10
(lp756
I1462374177
asg12
S'B'
p757
sg14
S'Passive'
p758
sg16
S'Thunder_A1_Upg'
p759
sg18
S'thundergod'
p760
stp761
Rp762
sS'Faceless_A3'
p763
g0
(g1
g2
(dp764
g8
I1
sg9
I1950303610
sg10
(lp765
sg12
S'B'
p766
sg14
S'Active'
p767
sg16
S'Faceless_A3'
p768
sg18
S'faceless'
p769
stp770
Rp771
sS'Faceless_A2'
p772
g0
(g1
g2
(dp773
g8
I2
sg9
I54031852
sg10
(lp774
sg12
S'B'
p775
sg14
S'Passive'
p776
sg16
S'Faceless_A2'
p777
sg18
S'faceless'
p778
stp779
Rp780
sS'Faceless_A1'
p781
g0
(g1
g2
(dp782
g8
I1
sg9
I-1708055466
sg10
(lp783
sg12
S'B'
p784
sg14
S'Active'
p785
sg16
S'Faceless_A1'
p786
sg18
S'faceless'
p787
stp788
Rp789
sS'Faceless_A0'
p790
g0
(g1
g2
(dp791
g8
I1
sg9
I-315222848
sg10
(lp792
sg12
S'B'
p793
sg14
S'Passive'
p794
sg16
S'Faceless_A0'
p795
sg18
S'faceless'
p796
stp797
Rp798
sS'Faceless_A4'
p799
g0
(g1
g2
(dp800
g8
I3
sg9
I-363081511
sg10
(lp801
sg12
S'B'
p802
sg14
S'Active'
p803
sg16
S'Faceless_A4'
p804
sg18
S'faceless'
p805
stp806
Rp807
sS'Unicorn_A2u'
p808
g0
(g1
g2
(dp809
g8
I4
sg9
I836441285
sg10
(lp810
I-1158653187
asg12
S'B'
p811
sg14
S'Passive'
p812
sg16
S'Unicorn_A2u'
p813
sg18
S'unicorn'
p814
stp815
Rp816
sS'Faceless_A1u1'
p817
g0
(g1
g2
(dp818
g8
I2
sg9
I-1834149052
sg10
(lp819
I-1708055466
asg12
S'B'
p820
sg14
S'Passive'
p821
sg16
S'Faceless_A1u1'
p822
sg18
S'faceless'
p823
stp824
Rp825
sS'Bard_A3u'
p826
g0
(g1
g2
(dp827
g8
I1
sg9
I1060190319
sg10
(lp828
I-1957379339
asg12
S'B'
p829
sg14
S'Passive'
p830
sg16
S'Bard_A3u'
p831
sg18
S'bard'
p832
stp833
Rp834
sS'Prince_A0'
p835
g0
(g1
g2
(dp836
g8
I3
sg9
I751798752
sg10
(lp837
sg12
S'B'
p838
sg14
S'Passive'
p839
sg16
S'Prince_A0'
p840
sg18
S'prince'
p841
stp842
Rp843
sS'Prince_A1'
p844
g0
(g1
g2
(dp845
g8
I1
sg9
I1539881334
sg10
(lp846
sg12
S'B'
p847
sg14
S'Active'
p848
sg16
S'Prince_A1'
p849
sg18
S'prince'
p850
stp851
Rp852
sS'Prince_A2'
p853
g0
(g1
g2
(dp854
g8
I1
sg9
I-1027479348
sg10
(lp855
sg12
S'B'
p856
sg14
S'Active'
p857
sg16
S'Prince_A2'
p858
sg18
S'prince'
p859
stp860
Rp861
sS'Prince_A3'
p862
g0
(g1
g2
(dp863
g8
I2
sg9
I-1245259686
sg10
(lp864
sg12
S'B'
p865
sg14
S'Passive'
p866
sg16
S'Prince_A3'
p867
sg18
S'prince'
p868
stp869
Rp870
sS'Prince_A4'
p871
g0
(g1
g2
(dp872
g8
I3
sg9
I732057081
sg10
(lp873
sg12
S'B'
p874
sg14
S'Active'
p875
sg16
S'Prince_A4'
p876
sg18
S'prince'
p877
stp878
Rp879
sS'Invisible_A3u'
p880
g0
(g1
g2
(dp881
g8
I3
sg9
I-853548275
sg10
(lp882
I-946868570
asg12
S'B'
p883
sg14
S'Passive'
p884
sg16
S'Invisible_A3u'
p885
sg18
S'invisible'
p886
stp887
Rp888
sS'Warlord_A1u'
p889
g0
(g1
g2
(dp890
g8
I2
sg9
I244610027
sg10
(lp891
I1083287899
asg12
S'B'
p892
sg14
S'Passive'
p893
sg16
S'Warlord_A1u'
p894
sg18
S'warlord'
p895
stp896
Rp897
sS'Healer_A2A3_Upg'
p898
g0
(g1
g2
(dp899
g8
I3
sg9
I-1484225210
sg10
(lp900
I-1626454659
aI-402033173
asg12
S'B'
p901
sg14
S'Passive'
p902
sg16
S'Healer_A2A3_Upg'
p903
sg18
S'healer'
p904
stp905
Rp906
sS'Rockman_A4_Upg'
p907
g0
(g1
g2
(dp908
g8
I4
sg9
I-120824123
sg10
(lp909
I1855188484
asg12
S'B'
p910
sg14
S'Passive'
p911
sg16
S'Rockman_A4_Upg'
p912
sg18
S'rockman'
p913
stp914
Rp915
sS'G096'
p916
g0
(g1
g2
(dp917
g8
I4
sg9
I-1026407893
sg10
(lp918
sg12
Nsg14
S'Active'
p919
sg16
g916
sg18
Nstp920
Rp921
sS'ManaWyrm_A0'
p922
g0
(g1
g2
(dp923
g8
I1
sg9
I-389791619
sg10
(lp924
sg12
S'B'
p925
sg14
S'Passive'
p926
sg16
S'ManaWyrm_A0'
p927
sg18
S'manawyrm'
p928
stp929
Rp930
sS'ManaWyrm_A2u2'
p931
g0
(g1
g2
(dp932
g8
I3
sg9
I881833037
sg10
(lp933
I113910097
asg12
S'B'
p934
sg14
S'Passive'
p935
sg16
S'ManaWyrm_A2u2'
p936
sg18
S'manawyrm'
p937
stp938
Rp939
sS'ManaWyrm_A2u1'
p940
g0
(g1
g2
(dp941
g8
I2
sg9
I-1383668233
sg10
(lp942
I113910097
asg12
S'B'
p943
sg14
S'Passive'
p944
sg16
S'ManaWyrm_A2u1'
p945
sg18
S'manawyrm'
p946
stp947
Rp948
sS'G094'
p949
g0
(g1
g2
(dp950
g8
I5
sg9
I752624391
sg10
(lp951
sg12
Nsg14
S'Active'
p952
sg16
g949
sg18
Nstp953
Rp954
sS'G095'
p955
g0
(g1
g2
(dp956
g8
I5
sg9
I1541084049
sg10
(lp957
sg12
Nsg14
S'Active'
p958
sg16
g955
sg18
Nstp959
Rp960
sS'Marine_A4u'
p961
g0
(g1
g2
(dp962
g8
I4
sg9
I701691402
sg10
(lp963
I72737322
asg12
S'B'
p964
sg14
S'Passive'
p965
sg16
S'Marine_A4u'
p966
sg18
S'marine'
p967
stp968
Rp969
sS'Mage_A4u'
p970
g0
(g1
g2
(dp971
g8
I4
sg9
I-953481572
sg10
(lp972
I-205236184
asg12
S'B'
p973
sg14
S'Passive'
p974
sg16
S'Mage_A4u'
p975
sg18
S'mage'
p976
stp977
Rp978
sS'G093'
p979
g0
(g1
g2
(dp980
g8
I5
sg9
I-1296517468
sg10
(lp981
sg12
Nsg14
S'Passive'
p982
sg16
g979
sg18
Nstp983
Rp984
sS'Frogenglut_A1u'
p985
g0
(g1
g2
(dp986
g8
I2
sg9
I-139475261
sg10
(lp987
I-1023676729
asg12
S'B'
p988
sg14
S'Passive'
p989
sg16
S'Frogenglut_A1u'
p990
sg18
S'frogenglut'
p991
stp992
Rp993
sS'Healer_A4'
p994
g0
(g1
g2
(dp995
g8
I2
sg9
I1986912328
sg10
(lp996
sg12
S'B'
p997
sg14
S'Active'
p998
sg16
S'Healer_A4'
p999
sg18
S'healer'
p1000
stp1001
Rp1002
sS'Fairy_A2u'
p1003
g0
(g1
g2
(dp1004
g8
I1
sg9
I-722485115
sg10
(lp1005
I1536825136
asg12
S'B'
p1006
sg14
S'Passive'
p1007
sg16
S'Fairy_A2u'
p1008
sg18
S'fairy'
p1009
stp1010
Rp1011
sS'Naga_A4'
p1012
g0
(g1
g2
(dp1013
g8
I3
sg9
I1297012194
sg10
(lp1014
sg12
S'B'
p1015
sg14
S'Active'
p1016
sg16
S'Naga_A4'
p1017
sg18
S'naga'
p1018
stp1019
Rp1020
sS'Naga_A5'
p1021
g0
(g1
g2
(dp1022
g8
I1
sg9
I977921396
sg10
(lp1023
sg12
S'B'
p1024
sg14
S'Passive'
p1025
sg16
S'Naga_A5'
p1026
sg18
S'naga'
p1027
stp1028
Rp1029
sS'Healer_A0'
p1030
g0
(g1
g2
(dp1031
g8
I1
sg9
I1895834705
sg10
(lp1032
sg12
S'B'
p1033
sg14
S'Passive'
p1034
sg16
S'Healer_A0'
p1035
sg18
S'healer'
p1036
stp1037
Rp1038
sS'Healer_A1'
p1039
g0
(g1
g2
(dp1040
g8
I1
sg9
I101127367
sg10
(lp1041
sg12
S'B'
p1042
sg14
S'Active'
p1043
sg16
S'Healer_A1'
p1044
sg18
S'healer'
p1045
stp1046
Rp1047
sS'Healer_A2'
p1048
g0
(g1
g2
(dp1049
g8
I2
sg9
I-1626454659
sg10
(lp1050
sg12
S'B'
p1051
sg14
S'Passive'
p1052
sg16
S'Healer_A2'
p1053
sg18
S'healer'
p1054
stp1055
Rp1056
sS'Healer_A3'
p1057
g0
(g1
g2
(dp1058
g8
I3
sg9
I-402033173
sg10
(lp1059
sg12
S'B'
p1060
sg14
S'Passive'
p1061
sg16
S'Healer_A3'
p1062
sg18
S'healer'
p1063
stp1064
Rp1065
sS'Firefox_A3'
p1066
g0
(g1
g2
(dp1067
g8
I1
sg9
I-318558282
sg10
(lp1068
sg12
S'B'
p1069
sg14
S'Active'
p1070
sg16
S'Firefox_A3'
p1071
sg18
S'firefox'
p1072
stp1073
Rp1074
sS'Firefox_A2'
p1075
g0
(g1
g2
(dp1076
g8
I4
sg9
I-1711005920
sg10
(lp1077
sg12
S'B'
p1078
sg14
S'Passive'
p1079
sg16
S'Firefox_A2'
p1080
sg18
S'firefox'
p1081
stp1082
Rp1083
sS'Firefox_A1'
p1084
g0
(g1
g2
(dp1085
g8
I1
sg9
I51203738
sg10
(lp1086
sg12
S'B'
p1087
sg14
S'Active'
p1088
sg16
S'Firefox_A1'
p1089
sg18
S'firefox'
p1090
stp1091
Rp1092
sS'Firefox_A0'
p1093
g0
(g1
g2
(dp1094
g8
I1
sg9
I1946844684
sg10
(lp1095
sg12
S'B'
p1096
sg14
S'Passive'
p1097
sg16
S'Firefox_A0'
p1098
sg18
S'firefox'
p1099
stp1100
Rp1101
sS'Firefox_A4'
p1102
g0
(g1
g2
(dp1103
g8
I2
sg9
I1936177685
sg10
(lp1104
sg12
S'B'
p1105
sg14
S'Active'
p1106
sg16
S'Firefox_A4'
p1107
sg18
S'firefox'
p1108
stp1109
Rp1110
sS'Marine_A1u'
p1111
g0
(g1
g2
(dp1112
g8
I2
sg9
I1420100175
sg10
(lp1113
I1950291621
asg12
S'B'
p1114
sg14
S'Passive'
p1115
sg16
S'Marine_A1u'
p1116
sg18
S'marine'
p1117
stp1118
Rp1119
sS'Vedun_A2u'
p1120
g0
(g1
g2
(dp1121
g8
I2
sg9
I1383569124
sg10
(lp1122
I270443232
asg12
S'B'
p1123
sg14
S'Passive'
p1124
sg16
S'Vedun_A2u'
p1125
sg18
S'witchdoctor'
p1126
stp1127
Rp1128
sS'Prince_A1u1'
p1129
g0
(g1
g2
(dp1130
g8
I2
sg9
I-1986588186
sg10
(lp1131
I1539881334
asg12
S'B'
p1132
sg14
S'Passive'
p1133
sg16
S'Prince_A1u1'
p1134
sg18
S'prince'
p1135
stp1136
Rp1137
sS'SnowQueen_A5'
p1138
g0
(g1
g2
(dp1139
g8
I2
sg9
I-1421657194
sg10
(lp1140
sg12
S'B'
p1141
sg14
S'Passive'
p1142
sg16
S'SnowQueen_A5'
p1143
sg18
S'snowqueen'
p1144
stp1145
Rp1146
sS'SnowQueen_A4'
p1147
g0
(g1
g2
(dp1148
g8
I3
sg9
I-599520512
sg10
(lp1149
sg12
S'B'
p1150
sg14
S'Active'
p1151
sg16
S'SnowQueen_A4'
p1152
sg18
S'snowqueen'
p1153
stp1154
Rp1155
sS'SnowQueen_A3'
p1156
g0
(g1
g2
(dp1157
g8
I2
sg9
I1109434019
sg10
(lp1158
sg12
S'B'
p1159
sg14
S'Active'
p1160
sg16
S'SnowQueen_A3'
p1161
sg18
S'snowqueen'
p1162
stp1163
Rp1164
sS'SnowQueen_A2'
p1165
g0
(g1
g2
(dp1166
g8
I1
sg9
I891792949
sg10
(lp1167
sg12
S'B'
p1168
sg14
S'Passive'
p1169
sg16
S'SnowQueen_A2'
p1170
sg18
S'snowqueen'
p1171
stp1172
Rp1173
sS'SnowQueen_A1'
p1174
g0
(g1
g2
(dp1175
g8
I1
sg9
I-1406206065
sg10
(lp1176
sg12
S'B'
p1177
sg14
S'Active'
p1178
sg16
S'SnowQueen_A1'
p1179
sg18
S'snowqueen'
p1180
stp1181
Rp1182
sS'SnowQueen_A0'
p1183
g0
(g1
g2
(dp1184
g8
I1
sg9
I-618016999
sg10
(lp1185
sg12
S'B'
p1186
sg14
S'Passive'
p1187
sg16
S'SnowQueen_A0'
p1188
sg18
S'snowqueen'
p1189
stp1190
Rp1191
sS'G100'
p1192
g0
(g1
g2
(dp1193
g8
I3
sg9
I-72272288
sg10
(lp1194
sg12
Nsg14
S'Passive'
p1195
sg16
g1192
sg18
Nstp1196
Rp1197
sS'G101'
p1198
g0
(g1
g2
(dp1199
g8
I3
sg9
I-1934227722
sg10
(lp1200
sg12
Nsg14
S'Passive'
p1201
sg16
g1198
sg18
Nstp1202
Rp1203
sS'G102'
p1204
g0
(g1
g2
(dp1205
g8
I4
sg9
I364861260
sg10
(lp1206
sg12
Nsg14
S'Passive'
p1207
sg16
g1204
sg18
Nstp1208
Rp1209
sS'G103'
p1210
g0
(g1
g2
(dp1211
g8
I4
sg9
I1656252378
sg10
(lp1212
sg12
Nsg14
S'Passive'
p1213
sg16
g1210
sg18
Nstp1214
Rp1215
sS'G104'
p1216
g0
(g1
g2
(dp1217
g8
I4
sg9
I-52628871
sg10
(lp1218
sg12
Nsg14
S'Passive'
p1219
sg16
g1216
sg18
Nstp1220
Rp1221
sS'G105'
p1222
g0
(g1
g2
(dp1223
g8
I4
sg9
I-1948531985
sg10
(lp1224
sg12
Nsg14
S'Passive'
p1225
sg16
g1222
sg18
Nstp1226
Rp1227
sS'G106'
p1228
g0
(g1
g2
(dp1229
g8
I4
sg9
I315790165
sg10
(lp1230
sg12
Nsg14
S'Passive'
p1231
sg16
g1228
sg18
Nstp1232
Rp1233
sS'G107'
p1234
g0
(g1
g2
(dp1235
g8
I4
sg9
I1708499907
sg10
(lp1236
sg12
Nsg14
S'Passive'
p1237
sg16
g1234
sg18
Nstp1238
Rp1239
sS'G108'
p1240
g0
(g1
g2
(dp1241
g8
I4
sg9
I-177553838
sg10
(lp1242
sg12
Nsg14
S'Passive'
p1243
sg16
g1240
sg18
Nstp1244
Rp1245
sS'G109'
p1246
g0
(g1
g2
(dp1247
g8
I4
sg9
I-2106749244
sg10
(lp1248
sg12
Nsg14
S'Passive'
p1249
sg16
g1246
sg18
Nstp1250
Rp1251
sS'ManaWyrm_A4_Upg'
p1252
g0
(g1
g2
(dp1253
g8
I4
sg9
I968657663
sg10
(lp1254
I-274103196
asg12
S'B'
p1255
sg14
S'Passive'
p1256
sg16
S'ManaWyrm_A4_Upg'
p1257
sg18
S'manawyrm'
p1258
stp1259
Rp1260
sS'G069'
p1261
g0
(g1
g2
(dp1262
g8
I6
sg9
I-705346699
sg10
(lp1263
sg12
Nsg14
S'Passive'
p1264
sg16
g1261
sg18
Nstp1265
Rp1266
sS'G068'
p1267
g0
(g1
g2
(dp1268
g8
I6
sg9
I-1561168925
sg10
(lp1269
sg12
Nsg14
S'Active'
p1270
sg16
g1267
sg18
Nstp1271
Rp1272
sS'G067'
p1273
g0
(g1
g2
(dp1274
g8
I5
sg9
I843935346
sg10
(lp1275
sg12
Nsg14
S'Passive'
p1276
sg16
g1273
sg18
Nstp1277
Rp1278
sS'G066'
p1279
g0
(g1
g2
(dp1280
g8
I5
sg9
I1162501860
sg10
(lp1281
sg12
Nsg14
S'Passive'
p1282
sg16
g1279
sg18
Nstp1283
Rp1284
sS'G065'
p1285
g0
(g1
g2
(dp1286
g8
I6
sg9
I-599584930
sg10
(lp1287
sg12
Nsg14
S'Passive'
p1288
sg16
g1285
sg18
Nstp1289
Rp1290
sS'G064'
p1291
g0
(g1
g2
(dp1292
g8
I5
sg9
I-1421590584
sg10
(lp1293
sg12
Nsg14
S'Passive'
p1294
sg16
g1291
sg18
Nstp1295
Rp1296
sS'G063'
p1297
g0
(g1
g2
(dp1298
g8
I5
sg9
I891333227
sg10
(lp1299
sg12
Nsg14
S'Active'
p1300
sg16
g1297
sg18
Nstp1301
Rp1302
sS'G062'
p1303
g0
(g1
g2
(dp1304
g8
I5
sg9
I1109891837
sg10
(lp1305
sg12
Nsg14
S'Passive'
p1306
sg16
g1303
sg18
Nstp1307
Rp1308
sS'G061'
p1309
g0
(g1
g2
(dp1310
g8
I5
sg9
I-617690297
sg10
(lp1311
sg12
Nsg14
S'Passive'
p1312
sg16
g1309
sg18
Nstp1313
Rp1314
sS'G060'
p1315
g0
(g1
g2
(dp1316
g8
I4
sg9
I-1406534703
sg10
(lp1317
sg12
Nsg14
S'Passive'
p1318
sg16
g1315
sg18
Nstp1319
Rp1320
sS'Healer_A1_Upg2'
p1321
g0
(g1
g2
(dp1322
g8
I4
sg9
I-512503513
sg10
(lp1323
I101127367
asg12
S'B'
p1324
sg14
S'Passive'
p1325
sg16
S'Healer_A1_Upg2'
p1326
sg18
S'healer'
p1327
stp1328
Rp1329
sS'Healer_A1_Upg1'
p1330
g0
(g1
g2
(dp1331
g8
I2
sg9
I2021294237
sg10
(lp1332
I101127367
asg12
S'B'
p1333
sg14
S'Passive'
p1334
sg16
S'Healer_A1_Upg1'
p1335
sg18
S'healer'
p1336
stp1337
Rp1338
sS'Night_A2u'
p1339
g0
(g1
g2
(dp1340
g8
I2
sg9
I-1238309063
sg10
(lp1341
I1503687788
asg12
S'B'
p1342
sg14
S'Passive'
p1343
sg16
S'Night_A2u'
p1344
sg18
S'night'
p1345
stp1346
Rp1347
sS'ManaWyrm_A1_Upg'
p1348
g0
(g1
g2
(dp1349
g8
I2
sg9
I-245627505
sg10
(lp1350
I-1614581525
asg12
S'B'
p1351
sg14
S'Passive'
p1352
sg16
S'ManaWyrm_A1_Upg'
p1353
sg18
S'manawyrm'
p1354
stp1355
Rp1356
sS'Unicorn_A2'
p1357
g0
(g1
g2
(dp1358
g8
I2
sg9
I-1158653187
sg10
(lp1359
sg12
S'B'
p1360
sg14
S'Passive'
p1361
sg16
S'Unicorn_A2'
p1362
sg18
S'unicorn'
p1363
stp1364
Rp1365
sS'Inventor_A2u'
p1366
g0
(g1
g2
(dp1367
g8
I1
sg9
I-1312709036
sg10
(lp1368
I-987430808
asg12
S'B'
p1369
sg14
S'Passive'
p1370
sg16
S'Inventor_A2u'
p1371
sg18
S'inventor'
p1372
stp1373
Rp1374
sS'Assassin_A3u'
p1375
g0
(g1
g2
(dp1376
g8
I3
sg9
I555839877
sg10
(lp1377
I-1695596441
asg12
S'B'
p1378
sg14
S'Passive'
p1379
sg16
S'Assassin_A3u'
p1380
sg18
S'assassin'
p1381
stp1382
Rp1383
sS'Fairy_A1u'
p1384
g0
(g1
g2
(dp1385
g8
I1
sg9
I-4025530
sg10
(lp1386
I-1030535542
asg12
S'B'
p1387
sg14
S'Passive'
p1388
sg16
S'Fairy_A1u'
p1389
sg18
S'fairy'
p1390
stp1391
Rp1392
sS'Fairy_A4'
p1393
g0
(g1
g2
(dp1394
g8
I1
sg9
I-1292258811
sg10
(lp1395
sg12
S'B'
p1396
sg14
S'Active'
p1397
sg16
S'Fairy_A4'
p1398
sg18
S'fairy'
p1399
stp1400
Rp1401
sS'Fairy_A1'
p1402
g0
(g1
g2
(dp1403
g8
I1
sg9
I-1030535542
sg10
(lp1404
sg12
S'B'
p1405
sg14
S'Active'
p1406
sg16
S'Fairy_A1'
p1407
sg18
S'fairy'
p1408
stp1409
Rp1410
sS'Fairy_A0'
p1411
g0
(g1
g2
(dp1412
g8
I1
sg9
I-1248561636
sg10
(lp1413
sg12
S'B'
p1414
sg14
S'Passive'
p1415
sg16
S'Fairy_A0'
p1416
sg18
S'fairy'
p1417
stp1418
Rp1419
sS'Fairy_A3'
p1420
g0
(g1
g2
(dp1421
g8
I1
sg9
I748496806
sg10
(lp1422
sg12
S'B'
p1423
sg14
S'Active'
p1424
sg16
S'Fairy_A3'
p1425
sg18
S'fairy'
p1426
stp1427
Rp1428
sS'Fairy_A2'
p1429
g0
(g1
g2
(dp1430
g8
I1
sg9
I1536825136
sg10
(lp1431
sg12
S'B'
p1432
sg14
S'Active'
p1433
sg16
S'Fairy_A2'
p1434
sg18
S'fairy'
p1435
stp1436
Rp1437
sS'Archeress_A2u2'
p1438
g0
(g1
g2
(dp1439
g8
I1
sg9
I1732500196
sg10
(lp1440
I-1856083939
asg12
S'B'
p1441
sg14
S'Passive'
p1442
sg16
S'Archeress_A2u2'
p1443
sg18
S'archeress'
p1444
stp1445
Rp1446
sS'Archeress_A2u1'
p1447
g0
(g1
g2
(dp1448
g8
I1
sg9
I-28669090
sg10
(lp1449
I-1856083939
asg12
S'B'
p1450
sg14
S'Passive'
p1451
sg16
S'Archeress_A2u1'
p1452
sg18
S'archeress'
p1453
stp1454
Rp1455
sS'Ratcatcher_A1_3_Upg'
p1456
g0
(g1
g2
(dp1457
g8
I2
sg9
I-513461300
sg10
(lp1458
I-750965562
aI1026772458
asg12
S'B'
p1459
sg14
S'Passive'
p1460
sg16
S'Ratcatcher_A1_3_Upg'
p1461
sg18
S'ratcatcher'
p1462
stp1463
Rp1464
sS'Naga_A1u1'
p1465
g0
(g1
g2
(dp1466
g8
I2
sg9
I-562714650
sg10
(lp1467
I1025778029
asg12
S'B'
p1468
sg14
S'Passive'
p1469
sg16
S'Naga_A1u1'
p1470
sg18
S'naga'
p1471
stp1472
Rp1473
sS'Hunter_A4'
p1474
g0
(g1
g2
(dp1475
g8
I3
sg9
I320545148
sg10
(lp1476
sg12
S'B'
p1477
sg14
S'Active'
p1478
sg16
S'Hunter_A4'
p1479
sg18
S'hunter'
p1480
stp1481
Rp1482
sS'Hunter_A3'
p1483
g0
(g1
g2
(dp1484
g8
I2
sg9
I-1921010465
sg10
(lp1485
sg12
S'B'
p1486
sg14
S'Active'
p1487
sg16
S'Hunter_A3'
p1488
sg18
S'hunter'
p1489
stp1490
Rp1491
sS'Firefox_A3_Upg1'
p1492
g0
(g1
g2
(dp1493
g8
I2
sg9
I560051385
sg10
(lp1494
I-318558282
asg12
S'B'
p1495
sg14
S'Passive'
p1496
sg16
S'Firefox_A3_Upg1'
p1497
sg18
S'firefox'
p1498
stp1499
Rp1500
sS'Hunter_A1'
p1501
g0
(g1
g2
(dp1502
g8
I1
sg9
I1668404723
sg10
(lp1503
sg12
S'B'
p1504
sg14
S'Active'
p1505
sg16
S'Hunter_A1'
p1506
sg18
S'hunter'
p1507
stp1508
Rp1509
sS'Hunter_A0'
p1510
g0
(g1
g2
(dp1511
g8
I1
sg9
I343336293
sg10
(lp1512
sg12
S'B'
p1513
sg14
S'Passive'
p1514
sg16
S'Hunter_A0'
p1515
sg18
S'hunter'
p1516
stp1517
Rp1518
sS'Ratcatcher_A2_Upg2'
p1519
g0
(g1
g2
(dp1520
g8
I3
sg9
I-1163195541
sg10
(lp1521
I1244953980
asg12
S'B'
p1522
sg14
S'Passive'
p1523
sg16
S'Ratcatcher_A2_Upg2'
p1524
sg18
S'ratcatcher'
p1525
stp1526
Rp1527
sS'G022'
p1528
g0
(g1
g2
(dp1529
g8
I4
sg9
I642473977
sg10
(lp1530
sg12
Nsg14
S'Passive'
p1531
sg16
g1528
sg18
Nstp1532
Rp1533
sS'G021'
p1534
g0
(g1
g2
(dp1535
g8
I2
sg9
I-1086190013
sg10
(lp1536
sg12
Nsg14
S'Passive'
p1537
sg16
g1534
sg18
Nstp1538
Rp1539
sS'G020'
p1540
g0
(g1
g2
(dp1541
g8
I5
sg9
I-934986027
sg10
(lp1542
sg12
Nsg14
S'Active'
p1543
sg16
g1540
sg18
Nstp1544
Rp1545
sS'G027'
p1546
g0
(g1
g2
(dp1547
g8
I2
sg9
I1445047158
sg10
(lp1548
sg12
Nsg14
S'Passive'
p1549
sg16
g1546
sg18
Nstp1550
Rp1551
sS'G026'
p1552
g0
(g1
g2
(dp1553
g8
I3
sg9
I556178400
sg10
(lp1554
sg12
Nsg14
S'Passive'
p1555
sg16
g1552
sg18
Nstp1556
Rp1557
sS'G025'
p1558
g0
(g1
g2
(dp1559
g8
I4
sg9
I-1204827558
sg10
(lp1560
sg12
Nsg14
S'Active'
p1561
sg16
g1558
sg18
Nstp1562
Rp1563
sS'G024'
p1564
g0
(g1
g2
(dp1565
g8
I2
sg9
I-819397940
sg10
(lp1566
sg12
Nsg14
S'Active'
p1567
sg16
g1564
sg18
Nstp1568
Rp1569
sS'Rockman_A4'
p1570
g0
(g1
g2
(dp1571
g8
I3
sg9
I1855188484
sg10
(lp1572
sg12
S'B'
p1573
sg14
S'Active'
p1574
sg16
S'Rockman_A4'
p1575
sg18
S'rockman'
p1576
stp1577
Rp1578
sS'G029'
p1579
g0
(g1
g2
(dp1580
g8
I2
sg9
I-1315338639
sg10
(lp1581
sg12
Nsg14
S'Active'
p1582
sg16
g1579
sg18
Nstp1583
Rp1584
sS'G028'
p1585
g0
(g1
g2
(dp1586
g8
I2
sg9
I-962677017
sg10
(lp1587
sg12
Nsg14
S'Passive'
p1588
sg16
g1585
sg18
Nstp1589
Rp1590
sS'Archeress_A4u'
p1591
g0
(g1
g2
(dp1592
g8
I1
sg9
I-945750263
sg10
(lp1593
I2017316136
asg12
S'B'
p1594
sg14
S'Passive'
p1595
sg16
S'Archeress_A4u'
p1596
sg18
S'archeress'
p1597
stp1598
Rp1599
sS'Rockman_A0'
p1600
g0
(g1
g2
(dp1601
g8
I1
sg9
I1778264605
sg10
(lp1602
sg12
S'B'
p1603
sg14
S'Passive'
p1604
sg16
S'Rockman_A0'
p1605
sg18
S'rockman'
p1606
stp1607
Rp1608
sS'Rockman_A3'
p1609
g0
(g1
g2
(dp1610
g8
I1
sg9
I-252216409
sg10
(lp1611
sg12
S'B'
p1612
sg14
S'Active'
p1613
sg16
S'Rockman_A3'
p1614
sg18
S'rockman'
p1615
stp1616
Rp1617
sS'Rockman_A2'
p1618
g0
(g1
g2
(dp1619
g8
I2
sg9
I-2014295247
sg10
(lp1620
sg12
S'B'
p1621
sg14
S'Passive'
p1622
sg16
S'Rockman_A2'
p1623
sg18
S'rockman'
p1624
stp1625
Rp1626
sS'Mowgli_A3_Upg'
p1627
g0
(g1
g2
(dp1628
g8
I2
sg9
I-869652204
sg10
(lp1629
I-677394508
asg12
S'B'
p1630
sg14
S'Passive'
p1631
sg16
S'Mowgli_A3_Upg'
p1632
sg18
S'mowgly'
p1633
stp1634
Rp1635
sS'ManaWyrm_A1'
p1636
g0
(g1
g2
(dp1637
g8
I1
sg9
I-1614581525
sg10
(lp1638
sg12
S'B'
p1639
sg14
S'Active'
p1640
sg16
S'ManaWyrm_A1'
p1641
sg18
S'manawyrm'
p1642
stp1643
Rp1644
sS'G097'
p1645
g0
(g1
g2
(dp1646
g8
I2
sg9
I-1244302659
sg10
(lp1647
sg12
Nsg14
S'Passive'
p1648
sg16
g1645
sg18
Nstp1649
Rp1650
sS'ManaWyrm_A3'
p1651
g0
(g1
g2
(dp1652
g8
I2
sg9
I1909264839
sg10
(lp1653
sg12
S'B'
p1654
sg14
S'Active'
p1655
sg16
S'ManaWyrm_A3'
p1656
sg18
S'manawyrm'
p1657
stp1658
Rp1659
sS'ManaWyrm_A2'
p1660
g0
(g1
g2
(dp1661
g8
I1
sg9
I113910097
sg10
(lp1662
sg12
S'B'
p1663
sg14
S'Active'
p1664
sg16
S'ManaWyrm_A2'
p1665
sg18
S'manawyrm'
p1666
stp1667
Rp1668
sS'G092'
p1669
g0
(g1
g2
(dp1670
g8
I5
sg9
I-977304014
sg10
(lp1671
sg12
Nsg14
S'Passive'
p1672
sg16
g1669
sg18
Nstp1673
Rp1674
sS'ManaWyrm_A4'
p1675
g0
(g1
g2
(dp1676
g8
I3
sg9
I-274103196
sg10
(lp1677
sg12
S'B'
p1678
sg14
S'Active'
p1679
sg16
S'ManaWyrm_A4'
p1680
sg18
S'manawyrm'
p1681
stp1682
Rp1683
sS'G090'
p1684
g0
(g1
g2
(dp1685
g8
I4
sg9
I733079326
sg10
(lp1686
sg12
Nsg14
S'Passive'
p1687
sg16
g1684
sg18
Nstp1688
Rp1689
sS'G091'
p1690
g0
(g1
g2
(dp1691
g8
I3
sg9
I1555486600
sg10
(lp1692
sg12
Nsg14
S'Passive'
p1693
sg16
g1690
sg18
Nstp1694
Rp1695
sS'G098'
p1696
g0
(g1
g2
(dp1697
g8
I3
sg9
I627732268
sg10
(lp1698
sg12
Nsg14
S'Passive'
p1699
sg16
g1696
sg18
Nstp1700
Rp1701
sS'G099'
p1702
g0
(g1
g2
(dp1703
g8
I3
sg9
I1382899642
sg10
(lp1704
sg12
Nsg14
S'Passive'
p1705
sg16
g1702
sg18
Nstp1706
Rp1707
sS'Vedun_A3u'
p1708
g0
(g1
g2
(dp1709
g8
I3
sg9
I1265412005
sg10
(lp1710
I1729729142
asg12
S'B'
p1711
sg14
S'Passive'
p1712
sg16
S'Vedun_A3u'
p1713
sg18
S'witchdoctor'
p1714
stp1715
Rp1716
sS'SnowQueen_A3u'
p1717
g0
(g1
g2
(dp1718
g8
I3
sg9
I-1108297486
sg10
(lp1719
I1109434019
asg12
S'B'
p1720
sg14
S'Passive'
p1721
sg16
S'SnowQueen_A3u'
p1722
sg18
S'snowqueen'
p1723
stp1724
Rp1725
sS'Unicorn_A4u'
p1726
g0
(g1
g2
(dp1727
g8
I4
sg9
I1736553283
sg10
(lp1728
I1402208200
asg12
S'B'
p1729
sg14
S'Passive'
p1730
sg16
S'Unicorn_A4u'
p1731
sg18
S'unicorn'
p1732
stp1733
Rp1734
sS'Inventor_A4'
p1735
g0
(g1
g2
(dp1736
g8
I1
sg9
I742827357
sg10
(lp1737
sg12
S'B'
p1738
sg14
S'Active'
p1739
sg16
S'Inventor_A4'
p1740
sg18
S'inventor'
p1741
stp1742
Rp1743
sS'Inventor_A2'
p1744
g0
(g1
g2
(dp1745
g8
I1
sg9
I-987430808
sg10
(lp1746
sg12
S'B'
p1747
sg14
S'Active'
p1748
sg16
S'Inventor_A2'
p1749
sg18
S'inventor'
p1750
stp1751
Rp1752
sS'Inventor_A3'
p1753
g0
(g1
g2
(dp1754
g8
I1
sg9
I-1306382082
sg10
(lp1755
sg12
S'B'
p1756
sg14
S'Active'
p1757
sg16
S'Inventor_A3'
p1758
sg18
S'inventor'
p1759
stp1760
Rp1761
sS'Inventor_A0'
p1762
g0
(g1
g2
(dp1763
g8
I1
sg9
I724263236
sg10
(lp1764
sg12
S'B'
p1765
sg14
S'Passive'
p1766
sg16
S'Inventor_A0'
p1767
sg18
S'inventor'
p1768
stp1769
Rp1770
sS'Inventor_A1'
p1771
g0
(g1
g2
(dp1772
g8
I1
sg9
I1546408402
sg10
(lp1773
sg12
S'B'
p1774
sg14
S'Active'
p1775
sg16
S'Inventor_A1'
p1776
sg18
S'inventor'
p1777
stp1778
Rp1779
sS'Warlord_A3'
p1780
g0
(g1
g2
(dp1781
g8
I2
sg9
I-1365260169
sg10
(lp1782
sg12
S'B'
p1783
sg14
S'Active'
p1784
sg16
S'Warlord_A3'
p1785
sg18
S'warlord'
p1786
stp1787
Rp1788
sS'Warlord_A2'
p1789
g0
(g1
g2
(dp1790
g8
I1
sg9
I-644286239
sg10
(lp1791
sg12
S'B'
p1792
sg14
S'Active'
p1793
sg16
S'Warlord_A2'
p1794
sg18
S'warlord'
p1795
stp1796
Rp1797
sS'Warlord_A1'
p1798
g0
(g1
g2
(dp1799
g8
I1
sg9
I1083287899
sg10
(lp1800
sg12
S'B'
p1801
sg14
S'Active'
p1802
sg16
S'Warlord_A1'
p1803
sg18
S'warlord'
p1804
stp1805
Rp1806
sS'Warlord_A0'
p1807
g0
(g1
g2
(dp1808
g8
I1
sg9
I932616653
sg10
(lp1809
sg12
S'B'
p1810
sg14
S'Passive'
p1811
sg16
S'Warlord_A0'
p1812
sg18
S'warlord'
p1813
stp1814
Rp1815
sS'Warlord_A4'
p1816
g0
(g1
g2
(dp1817
g8
I3
sg9
I821779924
sg10
(lp1818
sg12
S'B'
p1819
sg14
S'Active'
p1820
sg16
S'Warlord_A4'
p1821
sg18
S'warlord'
p1822
stp1823
Rp1824
sS'Mage_A1'
p1825
g0
(g1
g2
(dp1826
g8
I1
sg9
I-2085704537
sg10
(lp1827
sg12
S'B'
p1828
sg14
S'Active'
p1829
sg16
S'Mage_A1'
p1830
sg18
S'mage'
p1831
stp1832
Rp1833
sS'Mage_A0'
p1834
g0
(g1
g2
(dp1835
g8
I1
sg9
I-190211023
sg10
(lp1836
sg12
S'B'
p1837
sg14
S'Passive'
p1838
sg16
S'Mage_A0'
p1839
sg18
S'mage'
p1840
stp1841
Rp1842
sS'Mage_A3'
p1843
g0
(g1
g2
(dp1844
g8
I2
sg9
I1839254923
sg10
(lp1845
sg12
S'B'
p1846
sg14
S'Active'
p1847
sg16
S'Mage_A3'
p1848
sg18
S'mage'
p1849
stp1850
Rp1851
sS'Mage_A2'
p1852
g0
(g1
g2
(dp1853
g8
I1
sg9
I447216925
sg10
(lp1854
sg12
S'B'
p1855
sg14
S'Active'
p1856
sg16
S'Mage_A2'
p1857
sg18
S'mage'
p1858
stp1859
Rp1860
sS'Mage_A4'
p1861
g0
(g1
g2
(dp1862
g8
I3
sg9
I-205236184
sg10
(lp1863
sg12
S'B'
p1864
sg14
S'Active'
p1865
sg16
S'Mage_A4'
p1866
sg18
S'mage'
p1867
stp1868
Rp1869
sS'Hunter_A4u'
p1870
g0
(g1
g2
(dp1871
g8
I4
sg9
I-1412609016
sg10
(lp1872
I320545148
asg12
S'B'
p1873
sg14
S'Passive'
p1874
sg16
S'Hunter_A4u'
p1875
sg18
S'hunter'
p1876
stp1877
Rp1878
sS'Marine_A4'
p1879
g0
(g1
g2
(dp1880
g8
I3
sg9
I72737322
sg10
(lp1881
sg12
S'B'
p1882
sg14
S'Active'
p1883
sg16
S'Marine_A4'
p1884
sg18
S'marine'
p1885
stp1886
Rp1887
sS'Marine_A3'
p1888
g0
(g1
g2
(dp1889
g8
I1
sg9
I-1708034167
sg10
(lp1890
sg12
S'B'
p1891
sg14
S'Passive'
p1892
sg16
S'Marine_A3'
p1893
sg18
S'marine'
p1894
stp1895
Rp1896
sS'Marine_A2'
p1897
g0
(g1
g2
(dp1898
g8
I2
sg9
I-315209953
sg10
(lp1899
sg12
S'B'
p1900
sg14
S'Active'
p1901
sg16
S'Marine_A2'
p1902
sg18
S'marine'
p1903
stp1904
Rp1905
sS'Marine_A1'
p1906
g0
(g1
g2
(dp1907
g8
I1
sg9
I1950291621
sg10
(lp1908
sg12
S'B'
p1909
sg14
S'Active'
p1910
sg16
S'Marine_A1'
p1911
sg18
S'marine'
p1912
stp1913
Rp1914
sS'Marine_A0'
p1915
g0
(g1
g2
(dp1916
g8
I1
sg9
I54011443
sg10
(lp1917
sg12
S'B'
p1918
sg14
S'Passive'
p1919
sg16
S'Marine_A0'
p1920
sg18
S'marine'
p1921
stp1922
Rp1923
sS'Unicorn_A3u'
p1924
g0
(g1
g2
(dp1925
g8
I3
sg9
I683681156
sg10
(lp1926
I-839423381
asg12
S'B'
p1927
sg14
S'Passive'
p1928
sg16
S'Unicorn_A3u'
p1929
sg18
S'unicorn'
p1930
stp1931
Rp1932
sS'SnowQueen_A4u'
p1933
g0
(g1
g2
(dp1934
g8
I4
sg9
I-223269323
sg10
(lp1935
I-599520512
asg12
S'B'
p1936
sg14
S'Passive'
p1937
sg16
S'SnowQueen_A4u'
p1938
sg18
S'snowqueen'
p1939
stp1940
Rp1941
sS'Bard_A2u'
p1942
g0
(g1
g2
(dp1943
g8
I1
sg9
I640289070
sg10
(lp1944
I-61607325
asg12
S'B'
p1945
sg14
S'Passive'
p1946
sg16
S'Bard_A2u'
p1947
sg18
S'bard'
p1948
stp1949
Rp1950
sS'Highlander_A4'
p1951
g0
(g1
g2
(dp1952
g8
I3
sg9
I938888917
sg10
(lp1953
sg12
S'B'
p1954
sg14
S'Active'
p1955
sg16
S'Highlander_A4'
p1956
sg18
S'highlander'
p1957
stp1958
Rp1959
sS'Highlander_A3'
p1960
g0
(g1
g2
(dp1961
g8
I1
sg9
I-1449993354
sg10
(lp1962
sg12
S'B'
p1963
sg14
S'Passive'
p1964
sg16
S'Highlander_A3'
p1965
sg18
S'highlander'
p1966
stp1967
Rp1968
sS'Highlander_A2'
p1969
g0
(g1
g2
(dp1970
g8
I2
sg9
I-560600096
sg10
(lp1971
sg12
S'B'
p1972
sg14
S'Passive'
p1973
sg16
S'Highlander_A2'
p1974
sg18
S'highlander'
p1975
stp1976
Rp1977
sS'Highlander_A1'
p1978
g0
(g1
g2
(dp1979
g8
I1
sg9
I1201453658
sg10
(lp1980
sg12
S'B'
p1981
sg14
S'Active'
p1982
sg16
S'Highlander_A1'
p1983
sg18
S'highlander'
p1984
stp1985
Rp1986
sS'Highlander_A0'
p1987
g0
(g1
g2
(dp1988
g8
I1
sg9
I815499980
sg10
(lp1989
sg12
S'B'
p1990
sg14
S'Passive'
p1991
sg16
S'Highlander_A0'
p1992
sg18
S'highlander'
p1993
stp1994
Rp1995
sS'Naga_A3u1'
p1996
g0
(g1
g2
(dp1997
g8
I3
sg9
I-571378808
sg10
(lp1998
I-752205759
asg12
S'B'
p1999
sg14
S'Passive'
p2000
sg16
S'Naga_A3u1'
p2001
sg18
S'naga'
p2002
stp2003
Rp2004
sS'Faceless_A3u1'
p2005
g0
(g1
g2
(dp2006
g8
I2
sg9
I-1859530966
sg10
(lp2007
I1950303610
asg12
S'B'
p2008
sg14
S'Passive'
p2009
sg16
S'Faceless_A3u1'
p2010
sg18
S'faceless'
p2011
stp2012
Rp2013
sS'Faceless_A3u2'
p2014
g0
(g1
g2
(dp2015
g8
I3
sg9
I136355472
sg10
(lp2016
I1950303610
asg12
S'B'
p2017
sg14
S'Passive'
p2018
sg16
S'Faceless_A3u2'
p2019
sg18
S'faceless'
p2020
stp2021
Rp2022
sS'GhostLord_A4u'
p2023
g0
(g1
g2
(dp2024
g8
I4
sg9
I-1037165163
sg10
(lp2025
I-158842129
asg12
S'B'
p2026
sg14
S'Passive'
p2027
sg16
S'GhostLord_A4u'
p2028
sg18
S'ghostlord'
p2029
stp2030
Rp2031
sS'Warlord_A4u'
p2032
g0
(g1
g2
(dp2033
g8
I4
sg9
I1944291246
sg10
(lp2034
I821779924
asg12
S'B'
p2035
sg14
S'Passive'
p2036
sg16
S'Warlord_A4u'
p2037
sg18
S'warlord'
p2038
stp2039
Rp2040
sS'Night_A3u'
p2041
g0
(g1
g2
(dp2042
g8
I3
sg9
I-1356081544
sg10
(lp2043
I782714106
asg12
S'B'
p2044
sg14
S'Passive'
p2045
sg16
S'Night_A3u'
p2046
sg18
S'night'
p2047
stp2048
Rp2049
sS'Prince_A0u'
p2050
g0
(g1
g2
(dp2051
g8
I1
sg9
I1380665295
sg10
(lp2052
sg12
S'B'
p2053
sg14
S'Passive'
p2054
sg16
S'Prince_A0u'
p2055
sg18
S'prince'
p2056
stp2057
Rp2058
sS'Inventor_A1u'
p2059
g0
(g1
g2
(dp2060
g8
I1
sg9
I-1695746665
sg10
(lp2061
I1546408402
asg12
S'B'
p2062
sg14
S'Passive'
p2063
sg16
S'Inventor_A1u'
p2064
sg18
S'inventor'
p2065
stp2066
Rp2067
sS'Mowgli_A4_Upg'
p2068
g0
(g1
g2
(dp2069
g8
I4
sg9
I2114647300
sg10
(lp2070
I1241207319
asg12
S'B'
p2071
sg14
S'Passive'
p2072
sg16
S'Mowgli_A4_Upg'
p2073
sg18
S'mowgly'
p2074
stp2075
Rp2076
sS'G113'
p2077
g0
(g1
g2
(dp2078
g8
I5
sg9
I2074302107
sg10
(lp2079
sg12
Nsg14
S'Passive'
p2080
sg16
g2077
sg18
Nstp2081
Rp2082
sS'G112'
p2083
g0
(g1
g2
(dp2084
g8
I5
sg9
I212100621
sg10
(lp2085
sg12
Nsg14
S'Passive'
p2086
sg16
g2083
sg18
Nstp2087
Rp2088
sS'G111'
p2089
g0
(g1
g2
(dp2090
g8
I4
sg9
I-1783810121
sg10
(lp2091
sg12
Nsg14
S'Passive'
p2092
sg16
g2089
sg18
Nstp2093
Rp2094
sS'G110'
p2095
g0
(g1
g2
(dp2096
g8
I4
sg9
I-492173535
sg10
(lp2097
sg12
Nsg14
S'Passive'
p2098
sg16
g2095
sg18
Nstp2099
Rp2100
sS'G117'
p2101
g0
(g1
g2
(dp2102
g8
I5
sg9
I2093912706
sg10
(lp2103
sg12
Nsg14
S'Passive'
p2104
sg16
g2101
sg18
Nstp2105
Rp2106
sS'G116'
p2107
g0
(g1
g2
(dp2108
g8
I5
sg9
I197763604
sg10
(lp2109
sg12
Nsg14
S'Passive'
p2110
sg16
g2107
sg18
Nstp2111
Rp2112
sS'G115'
p2113
g0
(g1
g2
(dp2114
g8
I5
sg9
I-1832848466
sg10
(lp2115
sg12
Nsg14
S'Passive'
p2116
sg16
g2113
sg18
Nstp2117
Rp2118
sS'G114'
p2119
g0
(g1
g2
(dp2120
g8
I5
sg9
I-439893192
sg10
(lp2121
sg12
Nsg14
S'Passive'
p2122
sg16
g2119
sg18
Nstp2123
Rp2124
sS'G119'
p2125
g0
(g1
g2
(dp2126
g8
I5
sg9
I-1686716539
sg10
(lp2127
sg12
Nsg14
S'Passive'
p2128
sg16
g2125
sg18
Nstp2129
Rp2130
sS'G118'
p2131
g0
(g1
g2
(dp2132
g8
I5
sg9
I-328102125
sg10
(lp2133
sg12
Nsg14
S'Passive'
p2134
sg16
g2131
sg18
Nstp2135
Rp2136
sS'G058'
p2137
g0
(g1
g2
(dp2138
g8
I5
sg9
I-1981865952
sg10
(lp2139
sg12
Nsg14
S'Passive'
p2140
sg16
g2137
sg18
Nstp2141
Rp2142
sS'G059'
p2143
g0
(g1
g2
(dp2144
g8
I5
sg9
I-19394378
sg10
(lp2145
sg12
Nsg14
S'Passive'
p2146
sg16
g2143
sg18
Nstp2147
Rp2148
sS'G053'
p2149
g0
(g1
g2
(dp2150
g8
I5
sg9
I504232360
sg10
(lp2151
sg12
Nsg14
S'Passive'
p2152
sg16
g2149
sg18
Nstp2153
Rp2154
sS'G051'
p2155
g0
(g1
g2
(dp2156
g8
I4
sg9
I-268199804
sg10
(lp2157
sg12
Nsg14
S'Active'
p2158
sg16
g2155
sg18
Nstp2159
Rp2160
sS'G056'
p2161
g0
(g1
g2
(dp2162
g8
I5
sg9
I1852247335
sg10
(lp2163
sg12
Nsg14
S'Active'
p2164
sg16
g2161
sg18
Nstp2165
Rp2166
sS'G057'
p2167
g0
(g1
g2
(dp2168
g8
I5
sg9
I425737649
sg10
(lp2169
sg12
Nsg14
S'Active'
p2170
sg16
g2167
sg18
Nstp2171
Rp2172
sS'G054'
p2173
g0
(g1
g2
(dp2174
g8
I4
sg9
I-2140574709
sg10
(lp2175
sg12
Nsg14
S'Passive'
p2176
sg16
g2173
sg18
Nstp2177
Rp2178
sS'Firefox_A1_Upg2'
p2179
g0
(g1
g2
(dp2180
g8
I3
sg9
I-174046200
sg10
(lp2181
I51203738
asg12
S'B'
p2182
sg14
S'Passive'
p2183
sg16
S'Firefox_A1_Upg2'
p2184
sg18
S'firefox'
p2185
stp2186
Rp2187
sS'Firefox_A1_Upg1'
p2188
g0
(g1
g2
(dp2189
g8
I2
sg9
I1823020466
sg10
(lp2190
I51203738
asg12
S'B'
p2191
sg14
S'Passive'
p2192
sg16
S'Firefox_A1_Upg1'
p2193
sg18
S'firefox'
p2194
stp2195
Rp2196
sS'Werewolf_A1u'
p2197
g0
(g1
g2
(dp2198
g8
I2
sg9
I1087786387
sg10
(lp2199
I103581113
asg12
S'B'
p2200
sg14
S'Passive'
p2201
sg16
S'Werewolf_A1u'
p2202
sg18
S'werewolf'
p2203
stp2204
Rp2205
sS'Hunter_A3u2'
p2206
g0
(g1
g2
(dp2207
g8
I4
sg9
I300609014
sg10
(lp2208
I-1921010465
asg12
S'B'
p2209
sg14
S'Passive'
p2210
sg16
S'Hunter_A3u2'
p2211
sg18
S'hunter'
p2212
stp2213
Rp2214
sS'Archeress_A1u'
p2215
g0
(g1
g2
(dp2216
g8
I1
sg9
I-1160311988
sg10
(lp2217
I139934119
asg12
S'B'
p2218
sg14
S'Passive'
p2219
sg16
S'Archeress_A1u'
p2220
sg18
S'archeress'
p2221
stp2222
Rp2223
sS'G122'
p2224
g0
(g1
g2
(dp2225
g8
I6
sg9
I663303630
sg10
(lp2226
sg12
Nsg14
S'Passive'
p2227
sg16
g2224
sg18
Nstp2228
Rp2229
sS'G123'
p2230
g0
(g1
g2
(dp2231
g8
I6
sg9
I1351484760
sg10
(lp2232
sg12
Nsg14
S'Passive'
p2233
sg16
g2230
sg18
Nstp2234
Rp2235
sS'Ratcatcher_A4'
p2236
g0
(g1
g2
(dp2237
g8
I3
sg9
I-1554524087
sg10
(lp2238
sg12
S'B'
p2239
sg14
S'Active'
p2240
sg16
S'Ratcatcher_A4'
p2241
sg18
S'ratcatcher'
p2242
stp2243
Rp2244
sS'Inventor_A4u'
p2245
g0
(g1
g2
(dp2246
g8
I1
sg9
I-409271854
sg10
(lp2247
I742827357
asg12
S'B'
p2248
sg14
S'Passive'
p2249
sg16
S'Inventor_A4u'
p2250
sg18
S'inventor'
p2251
stp2252
Rp2253
sS'Ratcatcher_A0'
p2254
g0
(g1
g2
(dp2255
g8
I1
sg9
I-1539695536
sg10
(lp2256
sg12
S'B'
p2257
sg14
S'Passive'
p2258
sg16
S'Ratcatcher_A0'
p2259
sg18
S'ratcatcher'
p2260
stp2261
Rp2262
sS'Ratcatcher_A1'
p2263
g0
(g1
g2
(dp2264
g8
I1
sg9
I-750965562
sg10
(lp2265
sg12
S'B'
p2266
sg14
S'Active'
p2267
sg16
S'Ratcatcher_A1'
p2268
sg18
S'ratcatcher'
p2269
stp2270
Rp2271
sS'Ratcatcher_A2'
p2272
g0
(g1
g2
(dp2273
g8
I1
sg9
I1244953980
sg10
(lp2274
sg12
S'B'
p2275
sg14
S'Active'
p2276
sg16
S'Ratcatcher_A2'
p2277
sg18
S'ratcatcher'
p2278
stp2279
Rp2280
sS'Ratcatcher_A3'
p2281
g0
(g1
g2
(dp2282
g8
I2
sg9
I1026772458
sg10
(lp2283
sg12
S'B'
p2284
sg14
S'Active'
p2285
sg16
S'Ratcatcher_A3'
p2286
sg18
S'ratcatcher'
p2287
stp2288
Rp2289
sS'Werewolf_A3u'
p2290
g0
(g1
g2
(dp2291
g8
I3
sg9
I1927294737
sg10
(lp2292
I-400366443
asg12
S'B'
p2293
sg14
S'Passive'
p2294
sg16
S'Werewolf_A3u'
p2295
sg18
S'werewolf'
p2296
stp2297
Rp2298
sS'Mowgli_A1_Upg2'
p2299
g0
(g1
g2
(dp2300
g8
I2
sg9
I1292624210
sg10
(lp2301
I965846680
asg12
S'B'
p2302
sg14
S'Passive'
p2303
sg16
S'Mowgli_A1_Upg2'
p2304
sg18
S'mowgly'
p2305
stp2306
Rp2307
sS'Mowgli_A1_Upg1'
p2308
g0
(g1
g2
(dp2309
g8
I3
sg9
I-738021144
sg10
(lp2310
I965846680
asg12
S'B'
p2311
sg14
S'Passive'
p2312
sg16
S'Mowgli_A1_Upg1'
p2313
sg18
S'mowgly'
p2314
stp2315
Rp2316
sS'Prince_A4u'
p2317
g0
(g1
g2
(dp2318
g8
I4
sg9
I908559051
sg10
(lp2319
I732057081
asg12
S'B'
p2320
sg14
S'Passive'
p2321
sg16
S'Prince_A4u'
p2322
sg18
S'prince'
p2323
stp2324
Rp2325
sS'Frogenglut_A3u'
p2326
g0
(g1
g2
(dp2327
g8
I2
sg9
I-979786687
sg10
(lp2328
I754290667
asg12
S'B'
p2329
sg14
S'Passive'
p2330
sg16
S'Frogenglut_A3u'
p2331
sg18
S'frogenglut'
p2332
stp2333
Rp2334
sS'Invisible_A3'
p2335
g0
(g1
g2
(dp2336
g8
I2
sg9
I-946868570
sg10
(lp2337
sg12
S'B'
p2338
sg14
S'Passive'
p2339
sg16
S'Invisible_A3'
p2340
sg18
S'invisible'
p2341
stp2342
Rp2343
sS'Invisible_A2'
p2344
g0
(g1
g2
(dp2345
g8
I1
sg9
I-1333207504
sg10
(lp2346
sg12
S'B'
p2347
sg14
S'Active'
p2348
sg16
S'Invisible_A2'
p2349
sg18
S'invisible'
p2350
stp2351
Rp2352
sS'Invisible_A1'
p2353
g0
(g1
g2
(dp2354
g8
I1
sg9
I696356746
sg10
(lp2355
sg12
S'B'
p2356
sg14
S'Active'
p2357
sg16
S'Invisible_A1'
p2358
sg18
S'invisible'
p2359
stp2360
Rp2361
sS'Invisible_A0'
p2362
g0
(g1
g2
(dp2363
g8
I1
sg9
I1585889052
sg10
(lp2364
sg12
S'B'
p2365
sg14
S'Passive'
p2366
sg16
S'Invisible_A0'
p2367
sg18
S'invisible'
p2368
stp2369
Rp2370
sS'Invisible_A4'
p2371
g0
(g1
g2
(dp2372
g8
I3
sg9
I1508604677
sg10
(lp2373
sg12
S'B'
p2374
sg14
S'Active'
p2375
sg16
S'Invisible_A4'
p2376
sg18
S'invisible'
p2377
stp2378
Rp2379
sS'G018'
p2380
g0
(g1
g2
(dp2381
g8
I3
sg9
I-306977500
sg10
(lp2382
sg12
Nsg14
S'Passive'
p2383
sg16
g2380
sg18
Nstp2384
Rp2385
sS'G019'
p2386
g0
(g1
g2
(dp2387
g8
I3
sg9
I-1699424846
sg10
(lp2388
sg12
Nsg14
S'Passive'
p2389
sg16
g2386
sg18
Nstp2390
Rp2391
sS'Mage_A1u'
p2392
g0
(g1
g2
(dp2393
g8
I2
sg9
I-1168313639
sg10
(lp2394
I-2085704537
asg12
S'B'
p2395
sg14
S'Passive'
p2396
sg16
S'Mage_A1u'
p2397
sg18
S'mage'
p2398
stp2399
Rp2400
sS'Highlander_A1u2'
p2401
g0
(g1
g2
(dp2402
g8
I2
sg9
I-1331272164
sg10
(lp2403
I1201453658
asg12
S'B'
p2404
sg14
S'Passive'
p2405
sg16
S'Highlander_A1u2'
p2406
sg18
S'highlander'
p2407
stp2408
Rp2409
sS'G014'
p2410
g0
(g1
g2
(dp2411
g8
I1
sg9
I-469391089
sg10
(lp2412
sg12
Nsg14
S'Passive'
p2413
sg16
g2410
sg18
Nstp2414
Rp2415
sS'G015'
p2416
g0
(g1
g2
(dp2417
g8
I1
sg9
I-1828546151
sg10
(lp2418
sg12
Nsg14
S'Passive'
p2419
sg16
g2416
sg18
Nstp2420
Rp2421
sS'G012'
p2422
g0
(g1
g2
(dp2423
g8
I1
sg9
I224791610
sg10
(lp2424
sg12
Nsg14
S'Passive'
p2425
sg16
g2422
sg18
Nstp2426
Rp2427
sS'G013'
p2428
g0
(g1
g2
(dp2429
g8
I2
sg9
I2053192876
sg10
(lp2430
sg12
Nsg14
S'Passive'
p2431
sg16
g2428
sg18
Nstp2432
Rp2433
sS'G011'
p2434
g0
(g1
g2
(dp2435
g8
I1
sg9
I-1804640896
sg10
(lp2436
sg12
Nsg14
S'Passive'
p2437
sg16
g2434
sg18
Nstp2438
Rp2439
sS'G016'
p2440
g0
(g1
g2
(dp2441
g8
I2
sg9
I168544291
sg10
(lp2442
sg12
Nsg14
S'Passive'
p2443
sg16
g2440
sg18
Nstp2444
Rp2445
sS'Frogenglut_A4u'
p2446
g0
(g1
g2
(dp2447
g8
I4
sg9
I-1965542778
sg10
(lp2448
I-1299113400
asg12
S'B'
p2449
sg14
S'Passive'
p2450
sg16
S'Frogenglut_A4u'
p2451
sg18
S'frogenglut'
p2452
stp2453
Rp2454
sS'Highlander_A1u1'
p2455
g0
(g1
g2
(dp2456
g8
I3
sg9
I699348902
sg10
(lp2457
I1201453658
asg12
S'B'
p2458
sg14
S'Passive'
p2459
sg16
S'Highlander_A1u1'
p2460
sg18
S'highlander'
p2461
stp2462
Rp2463
sS'Rockman_A2_Upg'
p2464
g0
(g1
g2
(dp2465
g8
I4
sg9
I2005707621
sg10
(lp2466
I-2014295247
asg12
S'B'
p2467
sg14
S'Passive'
p2468
sg16
S'Rockman_A2_Upg'
p2469
sg18
S'rockman'
p2470
stp2471
Rp2472
sS'Faceless_A4u1'
p2473
g0
(g1
g2
(dp2474
g8
I4
sg9
I-1805198929
sg10
(lp2475
I-363081511
asg12
S'B'
p2476
sg14
S'Passive'
p2477
sg16
S'Faceless_A4u1'
p2478
sg18
S'faceless'
p2479
stp2480
Rp2481
sS'Thunder_A2_Upg'
p2482
g0
(g1
g2
(dp2483
g8
I2
sg9
I-358458249
sg10
(lp2484
I-836542821
asg12
S'B'
p2485
sg14
S'Passive'
p2486
sg16
S'Thunder_A2_Upg'
p2487
sg18
S'thundergod'
p2488
stp2489
Rp2490
sS'Bard_A1u'
p2491
g0
(g1
g2
(dp2492
g8
I1
sg9
I218585837
sg10
(lp2493
I1700439001
asg12
S'B'
p2494
sg14
S'Passive'
p2495
sg16
S'Bard_A1u'
p2496
sg18
S'bard'
p2497
stp2498
Rp2499
sS'Mowgli_A4'
p2500
g0
(g1
g2
(dp2501
g8
I3
sg9
I1241207319
sg10
(lp2502
sg12
S'B'
p2503
sg14
S'Active'
p2504
sg16
S'Mowgli_A4'
p2505
sg18
S'mowgly'
p2506
stp2507
Rp2508
sS'Werewolf_A4u'
p2509
g0
(g1
g2
(dp2510
g8
I4
sg9
I1034009046
sg10
(lp2511
I1984327990
asg12
S'B'
p2512
sg14
S'Passive'
p2513
sg16
S'Werewolf_A4u'
p2514
sg18
S'werewolf'
p2515
stp2516
Rp2517
sS'Mowgli_A0'
p2518
g0
(g1
g2
(dp2519
g8
I1
sg9
I1318491662
sg10
(lp2520
sg12
S'B'
p2521
sg14
S'Passive'
p2522
sg16
S'Mowgli_A0'
p2523
sg18
S'mowgly'
p2524
stp2525
Rp2526
sS'Mowgli_A1'
p2527
g0
(g1
g2
(dp2528
g8
I1
sg9
I965846680
sg10
(lp2529
sg12
S'B'
p2530
sg14
S'Active'
p2531
sg16
S'Mowgli_A1'
p2532
sg18
S'mowgly'
p2533
stp2534
Rp2535
sS'Mowgli_A2'
p2536
g0
(g1
g2
(dp2537
g8
I2
sg9
I-1600587998
sg10
(lp2538
sg12
S'B'
p2539
sg14
S'Passive'
p2540
sg16
S'Mowgli_A2'
p2541
sg18
S'mowgly'
p2542
stp2543
Rp2544
sS'Mowgli_A3'
p2545
g0
(g1
g2
(dp2546
g8
I1
sg9
I-677394508
sg10
(lp2547
sg12
S'B'
p2548
sg14
S'Active'
p2549
sg16
S'Mowgli_A3'
p2550
sg18
S'mowgly'
p2551
stp2552
Rp2553
sS'G081'
p2554
g0
(g1
g2
(dp2555
g8
I4
sg9
I1169024713
sg10
(lp2556
sg12
Nsg14
S'Passive'
p2557
sg16
g2554
sg18
Nstp2558
Rp2559
sS'G080'
p2560
g0
(g1
g2
(dp2561
g8
I4
sg9
I850056799
sg10
(lp2562
sg12
Nsg14
S'Passive'
p2563
sg16
g2560
sg18
Nstp2564
Rp2565
sS'G083'
p2566
g0
(g1
g2
(dp2567
g8
I4
sg9
I-1415346203
sg10
(lp2568
sg12
Nsg14
S'Passive'
p2569
sg16
g2566
sg18
Nstp2570
Rp2571
sS'G082'
p2572
g0
(g1
g2
(dp2573
g8
I4
sg9
I-593184909
sg10
(lp2574
sg12
Nsg14
S'Passive'
p2575
sg16
g2572
sg18
Nstp2576
Rp2577
sS'G085'
p2578
g0
(g1
g2
(dp2579
g8
I4
sg9
I1119888080
sg10
(lp2580
sg12
Nsg14
S'Passive'
p2581
sg16
g2578
sg18
Nstp2582
Rp2583
sS'G084'
p2584
g0
(g1
g2
(dp2585
g8
I4
sg9
I902238790
sg10
(lp2586
sg12
Nsg14
S'Passive'
p2587
sg16
g2584
sg18
Nstp2588
Rp2589
sS'G087'
p2590
g0
(g1
g2
(dp2591
g8
I2
sg9
I-1395768324
sg10
(lp2592
sg12
Nsg14
S'Passive'
p2593
sg16
g2590
sg18
Nstp2594
Rp2595
sS'G086'
p2596
g0
(g1
g2
(dp2597
g8
I4
sg9
I-607554710
sg10
(lp2598
sg12
Nsg14
S'Passive'
p2599
sg16
g2596
sg18
Nstp2600
Rp2601
sS'G089'
p2602
g0
(g1
g2
(dp2603
g8
I3
sg9
I1266052859
sg10
(lp2604
sg12
Nsg14
S'Passive'
p2605
sg16
g2602
sg18
Nstp2606
Rp2607
sS'G088'
p2608
g0
(g1
g2
(dp2609
g8
I2
sg9
I1014062701
sg10
(lp2610
sg12
Nsg14
S'Passive'
p2611
sg16
g2608
sg18
Nstp2612
Rp2613
sS'GhostLord_A1u'
p2614
g0
(g1
g2
(dp2615
g8
I2
sg9
I-1084626480
sg10
(lp2616
I-2031962528
asg12
S'B'
p2617
sg14
S'Passive'
p2618
sg16
S'GhostLord_A1u'
p2619
sg18
S'ghostlord'
p2620
stp2621
Rp2622
sS'Highlander_A2u'
p2623
g0
(g1
g2
(dp2624
g8
I3
sg9
I1387863469
sg10
(lp2625
I-560600096
asg12
S'B'
p2626
sg14
S'Passive'
p2627
sg16
S'Highlander_A2u'
p2628
sg18
S'highlander'
p2629
stp2630
Rp2631
sS'Invisible_A1u'
p2632
g0
(g1
g2
(dp2633
g8
I2
sg9
I-14057073
sg10
(lp2634
I696356746
asg12
S'B'
p2635
sg14
S'Passive'
p2636
sg16
S'Invisible_A1u'
p2637
sg18
S'invisible'
p2638
stp2639
Rp2640
sS'Warlord_A3u'
p2641
g0
(g1
g2
(dp2642
g8
I3
sg9
I1017254249
sg10
(lp2643
I-1365260169
asg12
S'B'
p2644
sg14
S'Passive'
p2645
sg16
S'Warlord_A3u'
p2646
sg18
S'warlord'
p2647
stp2648
Rp2649
sS'Night_A4u'
p2650
g0
(g1
g2
(dp2651
g8
I4
sg9
I-529907521
sg10
(lp2652
I-1329344167
asg12
S'B'
p2653
sg14
S'Passive'
p2654
sg16
S'Night_A4u'
p2655
sg18
S'night'
p2656
stp2657
Rp2658
sS'Assassin_A1u'
p2659
g0
(g1
g2
(dp2660
g8
I2
sg9
I320279303
sg10
(lp2661
I1960911179
asg12
S'B'
p2662
sg14
S'Passive'
p2663
sg16
S'Assassin_A1u'
p2664
sg18
S'assassin'
p2665
stp2666
Rp2667
sS'Archeress_A4'
p2668
g0
(g1
g2
(dp2669
g8
I1
sg9
I2017316136
sg10
(lp2670
sg12
S'B'
p2671
sg14
S'Active'
p2672
sg16
S'Archeress_A4'
p2673
sg18
S'archeress'
p2674
stp2675
Rp2676
sS'Archeress_A0'
p2677
g0
(g1
g2
(dp2678
g8
I1
sg9
I2135951665
sg10
(lp2679
sg12
S'B'
p2680
sg14
S'Passive'
p2681
sg16
S'Archeress_A0'
p2682
sg18
S'archeress'
p2683
stp2684
Rp2685
sS'Archeress_A1'
p2686
g0
(g1
g2
(dp2687
g8
I1
sg9
I139934119
sg10
(lp2688
sg12
S'B'
p2689
sg14
S'Active'
p2690
sg16
S'Archeress_A1'
p2691
sg18
S'archeress'
p2692
stp2693
Rp2694
sS'Archeress_A2'
p2695
g0
(g1
g2
(dp2696
g8
I1
sg9
I-1856083939
sg10
(lp2697
sg12
S'B'
p2698
sg14
S'Active'
p2699
sg16
S'Archeress_A2'
p2700
sg18
S'archeress'
p2701
stp2702
Rp2703
sS'Archeress_A3'
p2704
g0
(g1
g2
(dp2705
g8
I1
sg9
I-430352245
sg10
(lp2706
sg12
S'B'
p2707
sg14
S'Passive'
p2708
sg16
S'Archeress_A3'
p2709
sg18
S'archeress'
p2710
stp2711
Rp2712
sS'Assassin_A2'
p2713
g0
(g1
g2
(dp2714
g8
I1
sg9
I-303533839
sg10
(lp2715
sg12
S'B'
p2716
sg14
S'Active'
p2717
sg16
S'Assassin_A2'
p2718
sg18
S'assassin'
p2719
stp2720
Rp2721
sS'Assassin_A3'
p2722
g0
(g1
g2
(dp2723
g8
I2
sg9
I-1695596441
sg10
(lp2724
sg12
S'B'
p2725
sg14
S'Active'
p2726
sg16
S'Assassin_A3'
p2727
sg18
S'assassin'
p2728
stp2729
Rp2730
sS'Assassin_A0'
p2731
g0
(g1
g2
(dp2732
g8
I1
sg9
I65409501
sg10
(lp2733
sg12
S'B'
p2734
sg14
S'Passive'
p2735
sg16
S'Assassin_A0'
p2736
sg18
S'assassin'
p2737
stp2738
Rp2739
sS'Assassin_A1'
p2740
g0
(g1
g2
(dp2741
g8
I1
sg9
I1960911179
sg10
(lp2742
sg12
S'B'
p2743
sg14
S'Active'
p2744
sg16
S'Assassin_A1'
p2745
sg18
S'assassin'
p2746
stp2747
Rp2748
sS'Assassin_A4'
p2749
g0
(g1
g2
(dp2750
g8
I3
sg9
I76273092
sg10
(lp2751
sg12
S'B'
p2752
sg14
S'Active'
p2753
sg16
S'Assassin_A4'
p2754
sg18
S'assassin'
p2755
stp2756
Rp2757
sS'Mage_A2u'
p2758
g0
(g1
g2
(dp2759
g8
I2
sg9
I-1854824166
sg10
(lp2760
I447216925
asg12
S'B'
p2761
sg14
S'Passive'
p2762
sg16
S'Mage_A2u'
p2763
sg18
S'mage'
p2764
stp2765
Rp2766
sS'Marine_A2u'
p2767
g0
(g1
g2
(dp2768
g8
I3
sg9
I2139640204
sg10
(lp2769
I-315209953
asg12
S'B'
p2770
sg14
S'Passive'
p2771
sg16
S'Marine_A2u'
p2772
sg18
S'marine'
p2773
stp2774
Rp2775
sS'Vedun_A4u'
p2776
g0
(g1
g2
(dp2777
g8
I4
sg9
I70070626
sg10
(lp2778
I-109246507
asg12
S'B'
p2779
sg14
S'Passive'
p2780
sg16
S'Vedun_A4u'
p2781
sg18
S'witchdoctor'
p2782
stp2783
Rp2784
sS'GhostLord_A4'
p2785
g0
(g1
g2
(dp2786
g8
I3
sg9
I-158842129
sg10
(lp2787
sg12
S'B'
p2788
sg14
S'Active'
p2789
sg16
S'GhostLord_A4'
p2790
sg18
S'ghostlord'
p2791
stp2792
Rp2793
sS'GhostLord_A5'
p2794
g0
(g1
g2
(dp2795
g8
I3
sg9
I-2121305479
sg10
(lp2796
sg12
S'B'
p2797
sg14
S'Passive'
p2798
sg16
S'GhostLord_A5'
p2799
sg18
S'ghostlord'
p2800
stp2801
Rp2802
sS'GhostLord_A0'
p2803
g0
(g1
g2
(dp2804
g8
I1
sg9
I-236615946
sg10
(lp2805
sg12
S'B'
p2806
sg14
S'Passive'
p2807
sg16
S'GhostLord_A0'
p2808
sg18
S'ghostlord'
p2809
stp2810
Rp2811
sS'GhostLord_A1'
p2812
g0
(g1
g2
(dp2813
g8
I1
sg9
I-2031962528
sg10
(lp2814
sg12
S'B'
p2815
sg14
S'Active'
p2816
sg16
S'GhostLord_A1'
p2817
sg18
S'ghostlord'
p2818
stp2819
Rp2820
sS'GhostLord_A2'
p2821
g0
(g1
g2
(dp2822
g8
I2
sg9
I535554010
sg10
(lp2823
sg12
S'B'
p2824
sg14
S'Active'
p2825
sg16
S'GhostLord_A2'
p2826
sg18
S'ghostlord'
p2827
stp2828
Rp2829
sS'GhostLord_A3'
p2830
g0
(g1
g2
(dp2831
g8
I1
sg9
I1760352076
sg10
(lp2832
sg12
S'B'
p2833
sg14
S'Active'
p2834
sg16
S'GhostLord_A3'
p2835
sg18
S'ghostlord'
p2836
stp2837
Rp2838
sS'Thunder_A4_Upg'
p2839
g0
(g1
g2
(dp2840
g8
I4
sg9
I1709353431
sg10
(lp2841
I658570158
asg12
S'B'
p2842
sg14
S'Passive'
p2843
sg16
S'Thunder_A4_Upg'
p2844
sg18
S'thundergod'
p2845
stp2846
Rp2847
sS'Assassin_A2u1'
p2848
g0
(g1
g2
(dp2849
g8
I2
sg9
I535679838
sg10
(lp2850
I-303533839
asg12
S'B'
p2851
sg14
S'Passive'
p2852
sg16
S'Assassin_A2u1'
p2853
sg18
S'assassin'
p2854
stp2855
Rp2856
sS'G044'
p2857
g0
(g1
g2
(dp2858
g8
I4
sg9
I-1720558262
sg10
(lp2859
sg12
Nsg14
S'Active'
p2860
sg16
g2857
sg18
Nstp2861
Rp2862
sS'Assassin_A2u2'
p2863
g0
(g1
g2
(dp2864
g8
I3
sg9
I-2031844636
sg10
(lp2865
I-303533839
asg12
S'B'
p2866
sg14
S'Passive'
p2867
sg16
S'Assassin_A2u2'
p2868
sg18
S'assassin'
p2869
stp2870
Rp2871
sS'Hunter_A3u1'
p2872
g0
(g1
g2
(dp2873
g8
I3
sg9
I-1998341044
sg10
(lp2874
I-1921010465
asg12
S'B'
p2875
sg14
S'Passive'
p2876
sg16
S'Hunter_A3u1'
p2877
sg18
S'hunter'
p2878
stp2879
Rp2880
sS'G040'
p2881
g0
(g1
g2
(dp2882
g8
I3
sg9
I-1642096301
sg10
(lp2883
sg12
Nsg14
S'Active'
p2884
sg16
g2881
sg18
Nstp2885
Rp2886
sS'G043'
p2887
g0
(g1
g2
(dp2888
g8
I4
sg9
I118933737
sg10
(lp2889
sg12
Nsg14
S'Passive'
p2890
sg16
g2887
sg18
Nstp2891
Rp2892
sS'G042'
p2893
g0
(g1
g2
(dp2894
g8
I3
sg9
I1880225919
sg10
(lp2895
sg12
Nsg14
S'Passive'
p2896
sg16
g2893
sg18
Nstp2897
Rp2898
sS'G124'
p2899
g0
(g1
g2
(dp2900
g8
I6
sg9
I-823488261
sg10
(lp2901
sg12
Nsg14
S'Passive'
p2902
sg16
g2899
sg18
Nstp2903
Rp2904
sS'G125'
p2905
g0
(g1
g2
(dp2906
g8
I6
sg9
I-1175609235
sg10
(lp2907
sg12
Nsg14
S'Passive'
p2908
sg16
g2905
sg18
Nstp2909
Rp2910
sS'G049'
p2911
g0
(g1
g2
(dp2912
g8
I4
sg9
I-406642185
sg10
(lp2913
sg12
Nsg14
S'Passive'
p2914
sg16
g2911
sg18
Nstp2915
Rp2916
sS'G048'
p2917
g0
(g1
g2
(dp2918
g8
I4
sg9
I-1866198687
sg10
(lp2919
sg12
Nsg14
S'Passive'
p2920
sg16
g2917
sg18
Nstp2921
Rp2922
sS'G120'
p2923
g0
(g1
g2
(dp2924
g8
I6
sg9
I-913877790
sg10
(lp2925
sg12
Nsg14
S'Passive'
p2926
sg16
g2923
sg18
Nstp2927
Rp2928
sS'G121'
p2929
g0
(g1
g2
(dp2930
g8
I6
sg9
I-1098881932
sg10
(lp2931
sg12
Nsg14
S'Passive'
p2932
sg16
g2929
sg18
Nstp2933
Rp2934
sS'Gender_F_1'
p2935
g0
(g1
g2
(dp2936
g8
I1
sg9
I1664084058
sg10
(lp2937
sg12
Nsg14
S'Passive'
p2938
sg16
g2935
sg18
Nstp2939
Rp2940
sS'Gender_M_1'
p2941
g0
(g1
g2
(dp2942
g8
I1
sg9
I1870268347
sg10
(lp2943
sg12
Nsg14
S'Passive'
p2944
sg16
g2941
sg18
Nstp2945
Rp2946
sS'Firefox_A4_Upg1'
p2947
g0
(g1
g2
(dp2948
g8
I3
sg9
I1013220353
sg10
(lp2949
I1936177685
asg12
S'B'
p2950
sg14
S'Passive'
p2951
sg16
S'Firefox_A4_Upg1'
p2952
sg18
S'firefox'
p2953
stp2954
Rp2955
sS'Fairy_A3u2'
p2956
g0
(g1
g2
(dp2957
g8
I1
sg9
I-2045686699
sg10
(lp2958
I-1292258811
asg12
S'B'
p2959
sg14
S'Passive'
p2960
sg16
S'Fairy_A3u2'
p2961
sg18
S'fairy'
p2962
stp2963
Rp2964
sS'Fairy_A3u1'
p2965
g0
(g1
g2
(dp2966
g8
I1
sg9
I521674223
sg10
(lp2967
I748496806
asg12
S'B'
p2968
sg14
S'Passive'
p2969
sg16
S'Fairy_A3u1'
p2970
sg18
S'fairy'
p2971
stp2972
Rp2973
ssS'CREATE_TIMESTAMP'
p2974
S'Fri Aug 19 16:44:38 2011'
p2975
sS'INDEX_HEROES'
p2976
(dp2977
I1160508680
S'mowgly'
p2978
sI1932001038
S'faceless'
p2979
sI-1549708651
S'naga'
p2980
sI299503511
S'night'
p2981
sI-1850465256
S'warlord'
p2982
sI-512972644
S'marine'
p2983
sI-1139813982
S'assassin'
p2984
sI-1150316378
S'rockman'
p2985
sI-704936789
S'werewolf'
p2986
sI1152531506
S'ghostlord'
p2987
sI1492899903
S'unicorn'
p2988
sI987473347
S'frogenglut'
p2989
sI1523535311
S'highlander'
p2990
sI-834226607
S'ratcatcher'
p2991
sI571020430
S'thundergod'
p2992
sI637171033
S'firefox'
p2993
sI1318972637
S'prince'
p2994
sI-447734811
S'snowqueen'
p2995
sI-1233569438
S'mage'
p2996
sI1255640165
S'hunter'
p2997
sI1948040428
S'witchdoctor'
p2998
sI375640302
S'manawyrm'
p2999
sI1617033593
S'healer'
p3000
sI880060159
S'invisible'
p3001
ssS'INDEX_TALENTS'
p3002
(dp3003
I-1856083939
S'Archeress_A2'
p3004
sI-1981865952
g2137
sI168544291
g2440
sI632889384
g165
sI-1161576401
g351
sI-1412609016
g1875
sI-752205759
S'Naga_A3'
p3005
sI1986912328
S'Healer_A4'
p3006
sI-1554524087
S'Ratcatcher_A4'
p3007
sI-692406195
g117
sI-48326578
g202
sI1664084058
g2935
sI-2006282149
g732
sI-1695596441
S'Assassin_A3'
p3008
sI-987430808
S'Inventor_A2'
p3009
sI-1175609235
g2905
sI1060190319
g831
sI-1365260169
S'Warlord_A3'
p3010
sI-389791619
g927
sI1880225919
g2893
sI-268199804
g2155
sI-722485115
g1008
sI-430352245
g2709
sI2021294237
g1335
sI-19394378
g2143
sI1169024713
g2554
sI-529907521
g2655
sI-819397940
g1564
sI-1027479348
S'Prince_A2'
p3011
sI1720934605
g723
sI-1540525865
S'Naga_A2'
p3012
sI-1978029864
g196
sI-363081511
S'Faceless_A4'
p3013
sI-644286239
S'Warlord_A2'
p3014
sI-738021144
g2313
sI118933737
g2887
sI-1614581525
S'ManaWyrm_A1'
p3015
sI-205236184
S'Mage_A4'
p3016
sI-1108297486
g1722
sI-823488261
g2899
sI-1306382082
S'Inventor_A3'
p3017
sI-934986027
g1540
sI-469391089
g2410
sI-869652204
g1632
sI-1854824166
g2763
sI-512503513
g1326
sI640289070
g1947
sI1546408402
S'Inventor_A1'
p3018
sI2135951665
g2682
sI1984327990
S'Werewolf_A4'
p3019
sI724263236
g1767
sI1960911179
S'Assassin_A1'
p3020
sI319879522
g208
sI113910097
S'ManaWyrm_A2'
p3021
sI1292624210
g2304
sI-1642096301
g2881
sI-1245259686
g867
sI-1329344167
S'Night_A4'
p3022
sI1083287899
S'Warlord_A1'
p3023
sI-1866198687
g2917
sI70070626
g2781
sI1017254249
g2646
sI1025778029
S'Naga_A1'
p3024
sI1539881334
S'Prince_A1'
p3025
sI320545148
S'Hunter_A4'
p3026
sI555839877
g1380
sI2139640204
g2772
sI-14057073
g2637
sI-1828546151
g2416
sI-158842129
S'GhostLord_A4'
p3027
sI139934119
S'Archeress_A1'
p3028
sI504232360
g2149
sI-1805198929
g2478
sI808243637
g627
sI-544897114
g697
sI-600630849
g270
sI-236615946
g2808
sI1909264839
g1656
sI932616653
g1812
sI-1084626480
g2619
sI-409271854
g2250
sI1034009046
g2514
sI1709353431
g2844
sI65409501
g2736
sI751798752
g840
sI-1986588186
g1134
sI1109891837
g1303
sI-406642185
g2911
sI1243812347
g315
sI-1292258811
g1398
sI-1036649978
g397
sI-1804289517
g135
sI197763604
g2107
sI1936177685
S'Firefox_A4'
p3029
sI1241207319
S'Mowgli_A4'
p3030
sI1778264605
g1605
sI72737322
S'Marine_A4'
p3031
sI752624391
g949
sI-1699424846
g2386
sI-856788428
g361
sI1329240631
g691
sI902238790
g2584
sI-1299113400
S'Frogenglut_A4'
p3032
sI1420100175
g1116
sI-1204827558
g1558
sI-1406534703
g1315
sI-61607325
S'Bard_A2'
p3033
sI-839423381
S'Unicorn_A3'
p3034
sI-1882793360
g519
sI1729729142
S'Vedun_A3'
p3035
sI-52628871
g1216
sI2093912706
g2101
sI-1965542778
g2451
sI519641739
S'Rockman_A1'
p3036
sI-1254962544
g391
sI943565473
g685
sI-1142340958
g355
sI-1244302659
g1645
sI-492173535
g2095
sI908559051
g2322
sI815499980
g1992
sI1119888080
g2578
sI597842641
g306
sI1257013973
g126
sI-1168313639
g2397
sI270443232
S'Vedun_A2'
p3037
sI1732500196
g1443
sI218585837
g2496
sI-1948531985
g1222
sI-1957379339
S'Bard_A3'
p3038
sI-1158653187
S'Unicorn_A2'
p3039
sI968657663
g1257
sI-599520512
S'SnowQueen_A4'
p3040
sI1508604677
g2376
sI320279303
g2664
sI-853548275
g885
sI-1467828432
g703
sI742103850
g409
sI-2014295247
S'Rockman_A2'
p3041
sI-439893192
g2119
sI-82318528
g108
sI1736553283
g1731
sI-1834149052
g822
sI-4025530
g1389
sI-617690297
g1309
sI-1160311988
g2220
sI308122447
g429
sI315790165
g1228
sI-1994919078
S'Vedun_A1'
p3042
sI535679838
g2853
sI2005707621
g2469
sI-607554710
g2596
sI-1163195541
g1524
sI1383569124
g1125
sI-1449993354
S'Highlander_A3'
p3043
sI-571378808
g2001
sI1541084049
g955
sI-1421657194
g1143
sI-252216409
S'Rockman_A3'
p3044
sI603523911
S'Unicorn_A1'
p3045
sI658570158
S'Thunder_A4'
p3046
sI1530702780
g403
sI1708499907
g1234
sI1760352076
g2835
sI-32455732
g219
sI1425947601
g741
sI1700439001
S'Bard_A1'
p3047
sI556178400
g1552
sI-1561168925
g1267
sI244610027
g894
sI-1395768324
g2590
sI1013220353
g2952
sI-1624910845
S'Werewolf_A2'
p3048
sI-174046200
g2184
sI-2140574709
g2173
sI-190211023
g1839
sI-28669090
g1452
sI224791610
g2422
sI-979786687
g2331
sI-92765111
g288
sI-1998341044
g2877
sI881833037
g936
sI-1188794867
S'Thunder_A3'
p3049
sI-1539695536
g2259
sI1895834705
g1035
sI-2045686699
g2961
sI-1708055466
S'Faceless_A1'
p3050
sI-274103196
S'ManaWyrm_A4'
p3051
sI-190262171
g154
sI1503687788
S'Night_A2'
p3052
sI-1098881932
g2929
sI-358458249
g2487
sI-400366443
S'Werewolf_A3'
p3053
sI-2085704537
S'Mage_A1'
p3054
sI-1248561636
g1416
sI2053192876
g2428
sI560051385
g1497
sI-705346699
g1261
sI-315222848
g795
sI-1921749823
g169
sI836441285
g813
sI-750965562
S'Ratcatcher_A1'
p3055
sI101127367
S'Healer_A1'
p3056
sI-1921010465
S'Hunter_A3'
p3057
sI-913877790
g2923
sI1268919532
g144
sI-2085624589
g148
sI-1658997510
g618
sI-595421952
g17
sI-1026407893
g916
sI2114647300
g2073
sI-658610931
g654
sI447216925
S'Mage_A2'
p3058
sI-306977500
g2380
sI2035991847
g27
sI2017316136
S'Archeress_A4'
p3059
sI1898689839
g63
sI1445047158
g1546
sI-223269323
g1938
sI-1213328064
g555
sI-1484225210
g903
sI-1720558262
g2857
sI1618814285
g645
sI1351484760
g2230
sI742827357
S'Inventor_A4'
p3060
sI343336293
g1515
sI977921396
g1026
sI1950303610
S'Faceless_A3'
p3061
sI343752059
g190
sI1244953980
S'Ratcatcher_A2'
p3062
sI-1626454659
S'Healer_A2'
p3063
sI-1804640896
g2434
sI683681156
g1929
sI1839254923
S'Mage_A3'
p3064
sI-245627505
g1353
sI1087786387
g2202
sI-1037165163
g2028
sI-1695746665
g2064
sI-303533839
S'Assassin_A2'
p3065
sI1387863469
g2628
sI425737649
g2167
sI1823020466
g2193
sI103581113
S'Werewolf_A1'
p3066
sI76273092
g2754
sI-675121721
g81
sI663303630
g2224
sI821779924
S'Warlord_A4'
p3067
sI-1062656554
S'Night_A1'
p3068
sI782714106
S'Night_A3'
p3069
sI1265412005
g1713
sI1297012194
S'Naga_A4'
p3070
sI699348902
g2460
sI1026772458
g2286
sI-402033173
g1062
sI54031852
g777
sI1668943341
g184
sI521674223
g2970
sI1668404723
S'Hunter_A1'
p3071
sI300609014
g2211
sI-1383668233
g945
sI732057081
S'Prince_A4'
p3072
sI1855188484
S'Rockman_A4'
p3073
sI701691402
g966
sI1946844684
g1098
sI212100621
g2083
sI1318491662
g2523
sI-1832848466
g2113
sI-1331272164
g2406
sI1201453658
S'Highlander_A1'
p3074
sI-984072673
g373
sI-1333207504
S'Invisible_A2'
p3075
sI-977304014
g1669
sI54011443
g1920
sI891792949
g1170
sI-2031962528
S'GhostLord_A1'
p3076
sI-1086190013
g1534
sI-1783810121
g2089
sI1811619408
g180
sI-1241719215
g600
sI-177553838
g1240
sI-1312709036
g1371
sI850056799
g2560
sI-72272288
g1192
sI1014062701
g2608
sI-1315338639
g1579
sI843935346
g1273
sI-1356081544
g2046
sI891333227
g1297
sI-1302393207
g367
sI-1030535542
S'Fairy_A1'
p3077
sI136355472
g2019
sI965846680
S'Mowgli_A1'
p3078
sI51203738
S'Firefox_A1'
p3079
sI2074302107
g2077
sI-953481572
g975
sI1109434019
S'SnowQueen_A3'
p3080
sI-1296517468
g979
sI1950291621
S'Marine_A1'
p3081
sI-946868570
S'Invisible_A3'
p3082
sI-1392367961
g759
sI1886432936
g99
sI-1421590584
g1291
sI1062235832
g679
sI-139475261
g990
sI-2106749244
g1246
sI-120824123
g912
sI-1023676729
S'Frogenglut_A1'
p3083
sI-513461300
g1461
sI938888917
g1956
sI-2121305479
g2799
sI-60627234
g324
sI1162501860
g1279
sI-962677017
g1585
sI1852247335
g2161
sI-1934227722
g1198
sI1266052859
g2602
sI-1504100606
g673
sI452347654
g90
sI-945750263
g1596
sI1927294737
g2295
sI-328102125
g2131
sI-1462069483
g636
sI-618016999
g1188
sI1585889052
S'Invisible_A0'
p3084
sI535554010
S'GhostLord_A2'
p3085
sI733079326
g1684
sI-315209953
S'Marine_A2'
p3086
sI-1711005920
g1080
sI1462374177
S'Thunder_A1'
p3087
sI-1600587998
g2541
sI-1859530966
g2010
sI627732268
g1696
sI1536825136
S'Fairy_A2'
p3088
sI727080755
g385
sI-1238309063
g1344
sI-560600096
S'Highlander_A2'
p3089
sI-2031844636
g2868
sI364861260
g1204
sI355489622
S'Bard_A4'
p3090
sI-599584930
g1285
sI1701558116
g333
sI1363963759
g259
sI-593184909
g2572
sI1542635389
S'Frogenglut_A2'
p3091
sI-1686716539
g2125
sI1555486600
g1690
sI-1708034167
S'Marine_A3'
p3092
sI696356746
S'Invisible_A1'
p3093
sI-1406206065
S'SnowQueen_A1'
p3094
sI-782364780
g667
sI-836542821
S'Thunder_A2'
p3095
sI1548840869
g379
sI748496806
S'Fairy_A3'
p3096
sI1944291246
g2037
sI-677394508
S'Mowgli_A3'
p3097
sI-318558282
S'Firefox_A3'
p3098
sI539836343
g474
sI1382899642
g1702
sI1870268347
g2941
sI1402208200
S'Unicorn_A4'
p3099
sI1380665295
g2055
sI-109246507
S'Vedun_A4'
p3100
sI1656252378
g1210
sI-1415346203
g2566
sI-562714650
g1470
sI754290667
S'Frogenglut_A3'
p3101
sI642473977
g1528
ssS'HEROES'
p3102
(dp3103
g2993
g0
(cxdb_types
HeroTypeDict
p3104
g2
(dp3105
S'name'
p3106
g2993
sS'legal'
p3107
I01
sS'sex'
p3108
S'Female'
p3109
sS'_OLD_TALENT_ROWS'
p3110
(dp3111
I1013220353
I3
sI-174046200
I3
sI1946844684
I1
sI-469391089
I1
sI-328102125
I5
sI197763604
I5
sI1936177685
I2
sI51203738
I1
sI-1948531985
I4
sI-1711005920
I4
sI943565473
I3
sI2074302107
I5
sI1548840869
I2
sI-544897114
I3
sI504232360
I5
sI627732268
I3
sI-1832848466
I5
sI1823020466
I2
sI-318558282
I1
sI1329240631
I2
sI560051385
I2
sI1708499907
I4
sI-2106749244
I4
sI-492173535
I4
sI663303630
I6
sI1351484760
I6
sI1664084058
I1
sI-72272288
I3
sI-913877790
I6
sI1363963759
I2
sI-1098881932
I6
sI343752059
I1
ssS'talents'
p3112
(lp3113
(lp3114
g0
(g1
g2
(dp3115
g9
I51203738
sg3106
S'Firefox_A1'
p3116
stp3117
Rp3118
ag0
(g1
g2
(dp3119
g9
I-318558282
sg3106
S'Firefox_A3'
p3120
stp3121
Rp3122
ag0
(g1
g2
(dp3123
g9
I343752059
sg3106
S'G002'
p3124
stp3125
Rp3126
ag0
(g1
g2
(dp3127
g9
I-469391089
sg3106
S'G014'
p3128
stp3129
Rp3130
ag0
(g1
g2
(dp3131
g9
I1664084058
sg3106
S'Gender_F_1'
p3132
stp3133
Rp3134
ag0
(g1
g2
(dp3135
g9
I1946844684
sg3106
S'Firefox_A0'
p3136
stp3137
Rp3138
aa(lp3139
g0
(g1
g2
(dp3140
g9
I1823020466
sg3106
S'Firefox_A1_Upg1'
p3141
stp3142
Rp3143
ag0
(g1
g2
(dp3144
g9
I560051385
sg3106
S'Firefox_A3_Upg1'
p3145
stp3146
Rp3147
ag0
(g1
g2
(dp3148
g9
I1936177685
sg3106
S'Firefox_A4'
p3149
stp3150
Rp3151
ag0
(g1
g2
(dp3152
g9
I1363963759
sg3106
S'G023'
p3153
stp3154
Rp3155
ag0
(g1
g2
(dp3156
g9
I1329240631
sg3106
S'G037'
p3157
stp3158
Rp3159
ag0
(g1
g2
(dp3160
g9
I1548840869
sg3106
S'G076'
p3161
stp3162
Rp3163
aa(lp3164
g0
(g1
g2
(dp3165
g9
I-174046200
sg3106
S'Firefox_A1_Upg2'
p3166
stp3167
Rp3168
ag0
(g1
g2
(dp3169
g9
I943565473
sg3106
S'G036'
p3170
stp3171
Rp3172
ag0
(g1
g2
(dp3173
g9
I1013220353
sg3106
S'Firefox_A4_Upg1'
p3174
stp3175
Rp3176
ag0
(g1
g2
(dp3177
g9
I627732268
sg3106
S'G098'
p3178
stp3179
Rp3180
ag0
(g1
g2
(dp3181
g9
I-72272288
sg3106
S'G100'
p3182
stp3183
Rp3184
ag0
(g1
g2
(dp3185
g9
I-544897114
sg3106
S'G038'
p3186
stp3187
Rp3188
aa(lp3189
g0
(g1
g2
(dp3190
g9
I-1711005920
sg3106
S'Firefox_A2'
p3191
stp3192
Rp3193
ag0
(g1
g2
(dp3194
g9
I-492173535
sg3106
S'G110'
p3195
stp3196
Rp3197
ag0
(g1
g2
(dp3198
g9
I1708499907
sg3106
S'G107'
p3199
stp3200
Rp3201
ag0
(g1
g2
(dp3202
g9
I-1948531985
sg3106
S'G105'
p3203
stp3204
Rp3205
ag0
(g1
g2
(dp3206
g9
I-2106749244
sg3106
S'G109'
p3207
stp3208
Rp3209
aa(lp3210
g0
(g1
g2
(dp3211
g9
I197763604
sg3106
S'G116'
p3212
stp3213
Rp3214
ag0
(g1
g2
(dp3215
g9
I-1832848466
sg3106
S'G115'
p3216
stp3217
Rp3218
ag0
(g1
g2
(dp3219
g9
I504232360
sg3106
S'G053'
p3220
stp3221
Rp3222
ag0
(g1
g2
(dp3223
g9
I-328102125
sg3106
S'G118'
p3224
stp3225
Rp3226
ag0
(g1
g2
(dp3227
g9
I2074302107
sg3106
S'G113'
p3228
stp3229
Rp3230
aa(lp3231
g0
(g1
g2
(dp3232
g9
I-913877790
sg3106
S'G120'
p3233
stp3234
Rp3235
ag0
(g1
g2
(dp3236
g9
I663303630
sg3106
S'G122'
p3237
stp3238
Rp3239
ag0
(g1
g2
(dp3240
g9
I1351484760
sg3106
S'G123'
p3241
stp3242
Rp3243
ag0
(g1
g2
(dp3244
g9
I-1098881932
sg3106
S'G121'
p3245
stp3246
Rp3247
aasS'link'
p3248
S'/Heroes/Firefox/_.HROB'
p3249
sg9
I637171033
sS'maxForceStock'
p3250
I100
sS'energyRegen'
p3251
I86400
sS'id'
p3252
S'firefox'
p3253
stp3254
Rp3255
sg2990
g0
(g3104
g2
(dp3256
g3106
g2990
sg3107
I01
sg3108
S'Male'
p3257
sg3110
(dp3258
I2093912706
I5
sI-1686716539
I5
sI212100621
I5
sI-1828546151
I1
sI-1948531985
I4
sI-1331272164
I2
sI2074302107
I5
sI1548840869
I2
sI699348902
I3
sI364861260
I4
sI1387863469
I3
sI-439893192
I5
sI1382899642
I3
sI1870268347
I1
sI556178400
I3
sI-1449993354
I1
sI815499980
I1
sI-819397940
I2
sI663303630
I6
sI-177553838
I4
sI938888917
I3
sI1201453658
I1
sI-560600096
I2
sI-1866198687
I4
sI-913877790
I6
sI1268919532
I2
sI1668943341
I1
sI1363963759
I2
sI-1098881932
I6
sI-1934227722
I3
sI-823488261
I6
sI315790165
I4
ssg3112
(lp3259
(lp3260
g0
(g1
g2
(dp3261
g9
I1201453658
sg3106
S'Highlander_A1'
p3262
stp3263
Rp3264
ag0
(g1
g2
(dp3265
g9
I-1449993354
sg3106
S'Highlander_A3'
p3266
stp3267
Rp3268
ag0
(g1
g2
(dp3269
g9
I1668943341
sg3106
S'G003'
p3270
stp3271
Rp3272
ag0
(g1
g2
(dp3273
g9
I-1828546151
sg3106
S'G015'
p3274
stp3275
Rp3276
ag0
(g1
g2
(dp3277
g9
I1870268347
sg3106
S'Gender_M_1'
p3278
stp3279
Rp3280
ag0
(g1
g2
(dp3281
g9
I815499980
sg3106
S'Highlander_A0'
p3282
stp3283
Rp3284
aa(lp3285
g0
(g1
g2
(dp3286
g9
I-1331272164
sg3106
S'Highlander_A1u2'
p3287
stp3288
Rp3289
ag0
(g1
g2
(dp3290
g9
I1268919532
sg3106
S'Highlander_A3u'
p3291
stp3292
Rp3293
ag0
(g1
g2
(dp3294
g9
I-560600096
sg3106
S'Highlander_A2'
p3295
stp3296
Rp3297
ag0
(g1
g2
(dp3298
g9
I1363963759
sg3106
S'G023'
p3299
stp3300
Rp3301
ag0
(g1
g2
(dp3302
g9
I-819397940
sg3106
S'G024'
p3303
stp3304
Rp3305
ag0
(g1
g2
(dp3306
g9
I1548840869
sg3106
S'G076'
p3307
stp3308
Rp3309
aa(lp3310
g0
(g1
g2
(dp3311
g9
I699348902
sg3106
S'Highlander_A1u1'
p3312
stp3313
Rp3314
ag0
(g1
g2
(dp3315
g9
I938888917
sg3106
S'Highlander_A4'
p3316
stp3317
Rp3318
ag0
(g1
g2
(dp3319
g9
I1387863469
sg3106
S'Highlander_A2u'
p3320
stp3321
Rp3322
ag0
(g1
g2
(dp3323
g9
I1382899642
sg3106
S'G099'
p3324
stp3325
Rp3326
ag0
(g1
g2
(dp3327
g9
I-1934227722
sg3106
S'G101'
p3328
stp3329
Rp3330
ag0
(g1
g2
(dp3331
g9
I556178400
sg3106
S'G026'
p3332
stp3333
Rp3334
aa(lp3335
g0
(g1
g2
(dp3336
g9
I315790165
sg3106
S'G106'
p3337
stp3338
Rp3339
ag0
(g1
g2
(dp3340
g9
I-1866198687
sg3106
S'G048'
p3341
stp3342
Rp3343
ag0
(g1
g2
(dp3344
g9
I-1948531985
sg3106
S'G105'
p3345
stp3346
Rp3347
ag0
(g1
g2
(dp3348
g9
I364861260
sg3106
S'G102'
p3349
stp3350
Rp3351
ag0
(g1
g2
(dp3352
g9
I-177553838
sg3106
S'G108'
p3353
stp3354
Rp3355
aa(lp3356
g0
(g1
g2
(dp3357
g9
I-439893192
sg3106
S'G114'
p3358
stp3359
Rp3360
ag0
(g1
g2
(dp3361
g9
I2093912706
sg3106
S'G117'
p3362
stp3363
Rp3364
ag0
(g1
g2
(dp3365
g9
I-1686716539
sg3106
S'G119'
p3366
stp3367
Rp3368
ag0
(g1
g2
(dp3369
g9
I212100621
sg3106
S'G112'
p3370
stp3371
Rp3372
ag0
(g1
g2
(dp3373
g9
I2074302107
sg3106
S'G113'
p3374
stp3375
Rp3376
aa(lp3377
g0
(g1
g2
(dp3378
g9
I663303630
sg3106
S'G122'
p3379
stp3380
Rp3381
ag0
(g1
g2
(dp3382
g9
I-1098881932
sg3106
S'G121'
p3383
stp3384
Rp3385
ag0
(g1
g2
(dp3386
g9
I-823488261
sg3106
S'G124'
p3387
stp3388
Rp3389
ag0
(g1
g2
(dp3390
g9
I-913877790
sg3106
S'G120'
p3391
stp3392
Rp3393
aasg3248
S'/Heroes/Highlander/_.HROB'
p3394
sg9
I1523535311
sg3250
I100
sg3251
I86400
sg3252
S'highlander'
p3395
stp3396
Rp3397
sg2980
g0
(g3104
g2
(dp3398
g3106
g2980
sg3107
I01
sg3108
S'Male'
p3399
sg3110
(dp3400
I2093912706
I5
sI-571378808
I3
sI212100621
I5
sI1668943341
I1
sI-328102125
I5
sI-1828546151
I1
sI-492173535
I4
sI168544291
I2
sI1548840869
I2
sI-1699424846
I3
sI-439893192
I5
sI-1098881932
I6
sI1382899642
I3
sI1870268347
I1
sI-600630849
I3
sI-752205759
I2
sI1445047158
I2
sI364861260
I4
sI-913877790
I6
sI663303630
I6
sI-177553838
I4
sI315790165
I4
sI-1540525865
I2
sI1297012194
I3
sI-823488261
I6
sI1162501860
I5
sI-562714650
I2
sI1025778029
I1
sI-1948531985
I4
sI977921396
I1
sI-1934227722
I3
sI1243812347
I1
ssg3112
(lp3401
(lp3402
g0
(g1
g2
(dp3403
g9
I1025778029
sg3106
S'Naga_A1'
p3404
stp3405
Rp3406
ag0
(g1
g2
(dp3407
g9
I977921396
sg3106
S'Naga_A5'
p3408
stp3409
Rp3410
ag0
(g1
g2
(dp3411
g9
I-1828546151
sg3106
S'G015'
p3412
stp3413
Rp3414
ag0
(g1
g2
(dp3415
g9
I1668943341
sg3106
S'G003'
p3416
stp3417
Rp3418
ag0
(g1
g2
(dp3419
g9
I1870268347
sg3106
S'Gender_M_1'
p3420
stp3421
Rp3422
ag0
(g1
g2
(dp3423
g9
I1243812347
sg3106
S'Naga_A0'
p3424
stp3425
Rp3426
aa(lp3427
g0
(g1
g2
(dp3428
g9
I-562714650
sg3106
S'Naga_A1u1'
p3429
stp3430
Rp3431
ag0
(g1
g2
(dp3432
g9
I-1540525865
sg3106
S'Naga_A2'
p3433
stp3434
Rp3435
ag0
(g1
g2
(dp3436
g9
I-752205759
sg3106
S'Naga_A3'
p3437
stp3438
Rp3439
ag0
(g1
g2
(dp3440
g9
I1445047158
sg3106
S'G027'
p3441
stp3442
Rp3443
ag0
(g1
g2
(dp3444
g9
I168544291
sg3106
S'G016'
p3445
stp3446
Rp3447
ag0
(g1
g2
(dp3448
g9
I1548840869
sg3106
S'G076'
p3449
stp3450
Rp3451
aa(lp3452
g0
(g1
g2
(dp3453
g9
I1297012194
sg3106
S'Naga_A4'
p3454
stp3455
Rp3456
ag0
(g1
g2
(dp3457
g9
I-600630849
sg3106
S'Naga_A2u1'
p3458
stp3459
Rp3460
ag0
(g1
g2
(dp3461
g9
I-571378808
sg3106
S'Naga_A3u1'
p3462
stp3463
Rp3464
ag0
(g1
g2
(dp3465
g9
I1382899642
sg3106
S'G099'
p3466
stp3467
Rp3468
ag0
(g1
g2
(dp3469
g9
I-1934227722
sg3106
S'G101'
p3470
stp3471
Rp3472
ag0
(g1
g2
(dp3473
g9
I-1699424846
sg3106
S'G019'
p3474
stp3475
Rp3476
aa(lp3477
g0
(g1
g2
(dp3478
g9
I-492173535
sg3106
S'G110'
p3479
stp3480
Rp3481
ag0
(g1
g2
(dp3482
g9
I-1948531985
sg3106
S'G105'
p3483
stp3484
Rp3485
ag0
(g1
g2
(dp3486
g9
I315790165
sg3106
S'G106'
p3487
stp3488
Rp3489
ag0
(g1
g2
(dp3490
g9
I-177553838
sg3106
S'G108'
p3491
stp3492
Rp3493
ag0
(g1
g2
(dp3494
g9
I364861260
sg3106
S'G102'
p3495
stp3496
Rp3497
aa(lp3498
g0
(g1
g2
(dp3499
g9
I212100621
sg3106
S'G112'
p3500
stp3501
Rp3502
ag0
(g1
g2
(dp3503
g9
I-439893192
sg3106
S'G114'
p3504
stp3505
Rp3506
ag0
(g1
g2
(dp3507
g9
I2093912706
sg3106
S'G117'
p3508
stp3509
Rp3510
ag0
(g1
g2
(dp3511
g9
I-328102125
sg3106
S'G118'
p3512
stp3513
Rp3514
ag0
(g1
g2
(dp3515
g9
I1162501860
sg3106
S'G066'
p3516
stp3517
Rp3518
aa(lp3519
g0
(g1
g2
(dp3520
g9
I-1098881932
sg3106
S'G121'
p3521
stp3522
Rp3523
ag0
(g1
g2
(dp3524
g9
I663303630
sg3106
S'G122'
p3525
stp3526
Rp3527
ag0
(g1
g2
(dp3528
g9
I-823488261
sg3106
S'G124'
p3529
stp3530
Rp3531
ag0
(g1
g2
(dp3532
g9
I-913877790
sg3106
S'G120'
p3533
stp3534
Rp3535
aasg3248
S'/Heroes/Naga/_.HROB'
p3536
sg9
I-1549708651
sg3250
I100
sg3251
I86400
sg3252
S'naga'
p3537
stp3538
Rp3539
sg3000
g0
(g3104
g2
(dp3540
g3106
g3000
sg3107
I01
sg3108
S'Female'
p3541
sg3110
(dp3542
I-469391089
I1
sI-328102125
I5
sI197763604
I5
sI-1948531985
I4
sI-492173535
I4
sI-1981865952
I5
sI943565473
I3
sI2074302107
I5
sI1548840869
I2
sI-512503513
I4
sI627732268
I3
sI-1161576401
I3
sI-1783810121
I4
sI1708499907
I4
sI-1484225210
I3
sI101127367
I1
sI1986912328
I2
sI-819397940
I2
sI-48326578
I1
sI1895834705
I1
sI1351484760
I6
sI1664084058
I1
sI-72272288
I3
sI-913877790
I6
sI1162501860
I5
sI-402033173
I3
sI-1175609235
I6
sI1363963759
I2
sI2021294237
I2
sI-1098881932
I6
sI343752059
I1
sI-1626454659
I2
ssg3112
(lp3543
(lp3544
g0
(g1
g2
(dp3545
g9
I101127367
sg3106
S'Healer_A1'
p3546
stp3547
Rp3548
ag0
(g1
g2
(dp3549
g9
I-48326578
sg3106
S'G004'
p3550
stp3551
Rp3552
ag0
(g1
g2
(dp3553
g9
I343752059
sg3106
S'G002'
p3554
stp3555
Rp3556
ag0
(g1
g2
(dp3557
g9
I-469391089
sg3106
S'G014'
p3558
stp3559
Rp3560
ag0
(g1
g2
(dp3561
g9
I1664084058
sg3106
S'Gender_F_1'
p3562
stp3563
Rp3564
ag0
(g1
g2
(dp3565
g9
I1895834705
sg3106
S'Healer_A0'
p3566
stp3567
Rp3568
aa(lp3569
g0
(g1
g2
(dp3570
g9
I2021294237
sg3106
S'Healer_A1_Upg1'
p3571
stp3572
Rp3573
ag0
(g1
g2
(dp3574
g9
I1986912328
sg3106
S'Healer_A4'
p3575
stp3576
Rp3577
ag0
(g1
g2
(dp3578
g9
I-1626454659
sg3106
S'Healer_A2'
p3579
stp3580
Rp3581
ag0
(g1
g2
(dp3582
g9
I1363963759
sg3106
S'G023'
p3583
stp3584
Rp3585
ag0
(g1
g2
(dp3586
g9
I-819397940
sg3106
S'G024'
p3587
stp3588
Rp3589
ag0
(g1
g2
(dp3590
g9
I1548840869
sg3106
S'G076'
p3591
stp3592
Rp3593
aa(lp3594
g0
(g1
g2
(dp3595
g9
I-402033173
sg3106
S'Healer_A3'
p3596
stp3597
Rp3598
ag0
(g1
g2
(dp3599
g9
I-1161576401
sg3106
S'Healer_A4_Upg'
p3600
stp3601
Rp3602
ag0
(g1
g2
(dp3603
g9
I-1484225210
sg3106
S'Healer_A2A3_Upg'
p3604
stp3605
Rp3606
ag0
(g1
g2
(dp3607
g9
I943565473
sg3106
S'G036'
p3608
stp3609
Rp3610
ag0
(g1
g2
(dp3611
g9
I627732268
sg3106
S'G098'
p3612
stp3613
Rp3614
ag0
(g1
g2
(dp3615
g9
I-72272288
sg3106
S'G100'
p3616
stp3617
Rp3618
aa(lp3619
g0
(g1
g2
(dp3620
g9
I-512503513
sg3106
S'Healer_A1_Upg2'
p3621
stp3622
Rp3623
ag0
(g1
g2
(dp3624
g9
I-492173535
sg3106
S'G110'
p3625
stp3626
Rp3627
ag0
(g1
g2
(dp3628
g9
I-1783810121
sg3106
S'G111'
p3629
stp3630
Rp3631
ag0
(g1
g2
(dp3632
g9
I1708499907
sg3106
S'G107'
p3633
stp3634
Rp3635
ag0
(g1
g2
(dp3636
g9
I-1948531985
sg3106
S'G105'
p3637
stp3638
Rp3639
aa(lp3640
g0
(g1
g2
(dp3641
g9
I197763604
sg3106
S'G116'
p3642
stp3643
Rp3644
ag0
(g1
g2
(dp3645
g9
I-328102125
sg3106
S'G118'
p3646
stp3647
Rp3648
ag0
(g1
g2
(dp3649
g9
I1162501860
sg3106
S'G066'
p3650
stp3651
Rp3652
ag0
(g1
g2
(dp3653
g9
I-1981865952
sg3106
S'G058'
p3654
stp3655
Rp3656
ag0
(g1
g2
(dp3657
g9
I2074302107
sg3106
S'G113'
p3658
stp3659
Rp3660
aa(lp3661
g0
(g1
g2
(dp3662
g9
I-1175609235
sg3106
S'G125'
p3663
stp3664
Rp3665
ag0
(g1
g2
(dp3666
g9
I1351484760
sg3106
S'G123'
p3667
stp3668
Rp3669
ag0
(g1
g2
(dp3670
g9
I-1098881932
sg3106
S'G121'
p3671
stp3672
Rp3673
ag0
(g1
g2
(dp3674
g9
I-913877790
sg3106
S'G120'
p3675
stp3676
Rp3677
aasg3248
S'/Heroes/Healer/_.HROB'
p3678
sg9
I1617033593
sg3250
I100
sg3251
I86400
sg3252
S'healer'
p3679
stp3680
Rp3681
sg2994
g0
(g3104
g2
(dp3682
g3106
g2994
sg3107
I01
sg3108
S'Male'
p3683
sg3110
(dp3684
I2093912706
I5
sI-1175609235
I6
sI1708499907
I4
sI197763604
I5
sI-492173535
I4
sI1548840869
I2
sI627732268
I3
sI-439893192
I5
sI1382899642
I3
sI1870268347
I1
sI556178400
I3
sI-1086190013
I2
sI1539881334
I1
sI-617690297
I5
sI908559051
I4
sI-1027479348
I1
sI1618814285
I2
sI663303630
I6
sI1380665295
I1
sI315790165
I4
sI732057081
I3
sI1351484760
I6
sI-1245259686
I2
sI751798752
I3
sI-823488261
I6
sI-1986588186
I2
sI1668943341
I1
sI1363963759
I2
sI-1934227722
I3
sI642473977
I4
sI343752059
I1
sI1109891837
I5
ssg3112
(lp3685
(lp3686
g0
(g1
g2
(dp3687
g9
I1539881334
sg3106
S'Prince_A1'
p3688
stp3689
Rp3690
ag0
(g1
g2
(dp3691
g9
I-1027479348
sg3106
S'Prince_A2'
p3692
stp3693
Rp3694
ag0
(g1
g2
(dp3695
g9
I1668943341
sg3106
S'G003'
p3696
stp3697
Rp3698
ag0
(g1
g2
(dp3699
g9
I343752059
sg3106
S'G002'
p3700
stp3701
Rp3702
ag0
(g1
g2
(dp3703
g9
I1870268347
sg3106
S'Gender_M_1'
p3704
stp3705
Rp3706
ag0
(g1
g2
(dp3707
g9
I1380665295
sg3106
S'Prince_A0u'
p3708
stp3709
Rp3710
aa(lp3711
g0
(g1
g2
(dp3712
g9
I-1986588186
sg3106
S'Prince_A1u1'
p3713
stp3714
Rp3715
ag0
(g1
g2
(dp3716
g9
I1618814285
sg3106
S'Prince_A2u'
p3717
stp3718
Rp3719
ag0
(g1
g2
(dp3720
g9
I-1245259686
sg3106
S'Prince_A3'
p3721
stp3722
Rp3723
ag0
(g1
g2
(dp3724
g9
I1363963759
sg3106
S'G023'
p3725
stp3726
Rp3727
ag0
(g1
g2
(dp3728
g9
I-1086190013
sg3106
S'G021'
p3729
stp3730
Rp3731
ag0
(g1
g2
(dp3732
g9
I1548840869
sg3106
S'G076'
p3733
stp3734
Rp3735
aa(lp3736
g0
(g1
g2
(dp3737
g9
I732057081
sg3106
S'Prince_A4'
p3738
stp3739
Rp3740
ag0
(g1
g2
(dp3741
g9
I1382899642
sg3106
S'G099'
p3742
stp3743
Rp3744
ag0
(g1
g2
(dp3745
g9
I751798752
sg3106
S'Prince_A0'
p3746
stp3747
Rp3748
ag0
(g1
g2
(dp3749
g9
I-1934227722
sg3106
S'G101'
p3750
stp3751
Rp3752
ag0
(g1
g2
(dp3753
g9
I556178400
sg3106
S'G026'
p3754
stp3755
Rp3756
ag0
(g1
g2
(dp3757
g9
I627732268
sg3106
S'G098'
p3758
stp3759
Rp3760
aa(lp3761
g0
(g1
g2
(dp3762
g9
I908559051
sg3106
S'Prince_A4u'
p3763
stp3764
Rp3765
ag0
(g1
g2
(dp3766
g9
I-492173535
sg3106
S'G110'
p3767
stp3768
Rp3769
ag0
(g1
g2
(dp3770
g9
I642473977
sg3106
S'G022'
p3771
stp3772
Rp3773
ag0
(g1
g2
(dp3774
g9
I315790165
sg3106
S'G106'
p3775
stp3776
Rp3777
ag0
(g1
g2
(dp3778
g9
I1708499907
sg3106
S'G107'
p3779
stp3780
Rp3781
aa(lp3782
g0
(g1
g2
(dp3783
g9
I-439893192
sg3106
S'G114'
p3784
stp3785
Rp3786
ag0
(g1
g2
(dp3787
g9
I1109891837
sg3106
S'G062'
p3788
stp3789
Rp3790
ag0
(g1
g2
(dp3791
g9
I2093912706
sg3106
S'G117'
p3792
stp3793
Rp3794
ag0
(g1
g2
(dp3795
g9
I197763604
sg3106
S'G116'
p3796
stp3797
Rp3798
ag0
(g1
g2
(dp3799
g9
I-617690297
sg3106
S'G061'
p3800
stp3801
Rp3802
aa(lp3803
g0
(g1
g2
(dp3804
g9
I663303630
sg3106
S'G122'
p3805
stp3806
Rp3807
ag0
(g1
g2
(dp3808
g9
I1351484760
sg3106
S'G123'
p3809
stp3810
Rp3811
ag0
(g1
g2
(dp3812
g9
I-823488261
sg3106
S'G124'
p3813
stp3814
Rp3815
ag0
(g1
g2
(dp3816
g9
I-1175609235
sg3106
S'G125'
p3817
stp3818
Rp3819
aasg3248
S'/Heroes/Prince/_.HROB'
p3820
sg9
I1318972637
sg3250
I100
sg3251
I86400
sg3252
S'prince'
p3821
stp3822
Rp3823
sg2985
g0
(g3104
g2
(dp3824
g3106
g2985
sg3107
I01
sg3108
S'Male'
p3825
sg3110
(dp3826
I2093912706
I5
sI1855188484
I3
sI519641739
I1
sI212100621
I5
sI-469391089
I1
sI-328102125
I5
sI-1828546151
I1
sI2074302107
I5
sI1778264605
I1
sI-492173535
I4
sI1548840869
I2
sI-252216409
I1
sI627732268
I3
sI-1832848466
I5
sI-2014295247
I2
sI-1699424846
I3
sI808243637
I2
sI1329240631
I2
sI-1098881932
I6
sI1382899642
I3
sI1870268347
I1
sI-120824123
I4
sI-819397940
I2
sI663303630
I6
sI1257013973
I3
sI1351484760
I6
sI2005707621
I4
sI-1948531985
I4
sI1445047158
I2
sI-1934227722
I3
sI-823488261
I6
sI315790165
I4
ssg3112
(lp3827
(lp3828
g0
(g1
g2
(dp3829
g9
I519641739
sg3106
S'Rockman_A1'
p3830
stp3831
Rp3832
ag0
(g1
g2
(dp3833
g9
I-252216409
sg3106
S'Rockman_A3'
p3834
stp3835
Rp3836
ag0
(g1
g2
(dp3837
g9
I-469391089
sg3106
S'G014'
p3838
stp3839
Rp3840
ag0
(g1
g2
(dp3841
g9
I-1828546151
sg3106
S'G015'
p3842
stp3843
Rp3844
ag0
(g1
g2
(dp3845
g9
I1870268347
sg3106
S'Gender_M_1'
p3846
stp3847
Rp3848
ag0
(g1
g2
(dp3849
g9
I1778264605
sg3106
S'Rockman_A0'
p3850
stp3851
Rp3852
aa(lp3853
g0
(g1
g2
(dp3854
g9
I808243637
sg3106
S'Rockman_A1_Upg'
p3855
stp3856
Rp3857
ag0
(g1
g2
(dp3858
g9
I-2014295247
sg3106
S'Rockman_A2'
p3859
stp3860
Rp3861
ag0
(g1
g2
(dp3862
g9
I1445047158
sg3106
S'G027'
p3863
stp3864
Rp3865
ag0
(g1
g2
(dp3866
g9
I1329240631
sg3106
S'G037'
p3867
stp3868
Rp3869
ag0
(g1
g2
(dp3870
g9
I-819397940
sg3106
S'G024'
p3871
stp3872
Rp3873
ag0
(g1
g2
(dp3874
g9
I1548840869
sg3106
S'G076'
p3875
stp3876
Rp3877
aa(lp3878
g0
(g1
g2
(dp3879
g9
I1855188484
sg3106
S'Rockman_A4'
p3880
stp3881
Rp3882
ag0
(g1
g2
(dp3883
g9
I1257013973
sg3106
S'Rockman_A3_Upg'
p3884
stp3885
Rp3886
ag0
(g1
g2
(dp3887
g9
I1382899642
sg3106
S'G099'
p3888
stp3889
Rp3890
ag0
(g1
g2
(dp3891
g9
I-1934227722
sg3106
S'G101'
p3892
stp3893
Rp3894
ag0
(g1
g2
(dp3895
g9
I-1699424846
sg3106
S'G019'
p3896
stp3897
Rp3898
ag0
(g1
g2
(dp3899
g9
I627732268
sg3106
S'G098'
p3900
stp3901
Rp3902
aa(lp3903
g0
(g1
g2
(dp3904
g9
I-120824123
sg3106
S'Rockman_A4_Upg'
p3905
stp3906
Rp3907
ag0
(g1
g2
(dp3908
g9
I2005707621
sg3106
S'Rockman_A2_Upg'
p3909
stp3910
Rp3911
ag0
(g1
g2
(dp3912
g9
I-492173535
sg3106
S'G110'
p3913
stp3914
Rp3915
ag0
(g1
g2
(dp3916
g9
I-1948531985
sg3106
S'G105'
p3917
stp3918
Rp3919
ag0
(g1
g2
(dp3920
g9
I315790165
sg3106
S'G106'
p3921
stp3922
Rp3923
aa(lp3924
g0
(g1
g2
(dp3925
g9
I212100621
sg3106
S'G112'
p3926
stp3927
Rp3928
ag0
(g1
g2
(dp3929
g9
I2074302107
sg3106
S'G113'
p3930
stp3931
Rp3932
ag0
(g1
g2
(dp3933
g9
I2093912706
sg3106
S'G117'
p3934
stp3935
Rp3936
ag0
(g1
g2
(dp3937
g9
I-1832848466
sg3106
S'G115'
p3938
stp3939
Rp3940
ag0
(g1
g2
(dp3941
g9
I-328102125
sg3106
S'G118'
p3942
stp3943
Rp3944
aa(lp3945
g0
(g1
g2
(dp3946
g9
I-1098881932
sg3106
S'G121'
p3947
stp3948
Rp3949
ag0
(g1
g2
(dp3950
g9
I663303630
sg3106
S'G122'
p3951
stp3952
Rp3953
ag0
(g1
g2
(dp3954
g9
I-823488261
sg3106
S'G124'
p3955
stp3956
Rp3957
ag0
(g1
g2
(dp3958
g9
I1351484760
sg3106
S'G123'
p3959
stp3960
Rp3961
aasg3248
S'/Heroes/Rockman/_.HROB'
p3962
sg9
I-1150316378
sg3250
I100
sg3251
I86400
sg3252
S'rockman'
p3963
stp3964
Rp3965
sg2995
g0
(g3104
g2
(dp3966
g3106
g2995
sg3107
I01
sg3108
S'Female'
p3967
sg3110
(dp3968
I-599520512
I3
sI1555486600
I3
sI212100621
I5
sI-1406206065
I1
sI-328102125
I5
sI197763604
I5
sI-1421657194
I2
sI-618016999
I1
sI2074302107
I5
sI943565473
I3
sI1109434019
I2
sI1548840869
I2
sI627732268
I3
sI-1832848466
I5
sI891792949
I1
sI-1783810121
I4
sI-1244302659
I2
sI-223269323
I4
sI1708499907
I4
sI-492173535
I4
sI-48326578
I1
sI1351484760
I6
sI1664084058
I1
sI-72272288
I3
sI-913877790
I6
sI-1175609235
I6
sI1363963759
I2
sI-1882793360
I2
sI-1108297486
I3
sI-1098881932
I6
sI-52628871
I4
sI343752059
I1
ssg3112
(lp3969
(lp3970
g0
(g1
g2
(dp3971
g9
I-1406206065
sg3106
S'SnowQueen_A1'
p3972
stp3973
Rp3974
ag0
(g1
g2
(dp3975
g9
I891792949
sg3106
S'SnowQueen_A2'
p3976
stp3977
Rp3978
ag0
(g1
g2
(dp3979
g9
I343752059
sg3106
S'G002'
p3980
stp3981
Rp3982
ag0
(g1
g2
(dp3983
g9
I-48326578
sg3106
S'G004'
p3984
stp3985
Rp3986
ag0
(g1
g2
(dp3987
g9
I1664084058
sg3106
S'Gender_F_1'
p3988
stp3989
Rp3990
ag0
(g1
g2
(dp3991
g9
I-618016999
sg3106
S'SnowQueen_A0'
p3992
stp3993
Rp3994
aa(lp3995
g0
(g1
g2
(dp3996
g9
I-1882793360
sg3106
S'SnowQueen_A1u'
p3997
stp3998
Rp3999
ag0
(g1
g2
(dp4000
g9
I1109434019
sg3106
S'SnowQueen_A3'
p4001
stp4002
Rp4003
ag0
(g1
g2
(dp4004
g9
I-1421657194
sg3106
S'SnowQueen_A5'
p4005
stp4006
Rp4007
ag0
(g1
g2
(dp4008
g9
I1363963759
sg3106
S'G023'
p4009
stp4010
Rp4011
ag0
(g1
g2
(dp4012
g9
I-1244302659
sg3106
S'G097'
p4013
stp4014
Rp4015
ag0
(g1
g2
(dp4016
g9
I1548840869
sg3106
S'G076'
p4017
stp4018
Rp4019
aa(lp4020
g0
(g1
g2
(dp4021
g9
I-599520512
sg3106
S'SnowQueen_A4'
p4022
stp4023
Rp4024
ag0
(g1
g2
(dp4025
g9
I-1108297486
sg3106
S'SnowQueen_A3u'
p4026
stp4027
Rp4028
ag0
(g1
g2
(dp4029
g9
I943565473
sg3106
S'G036'
p4030
stp4031
Rp4032
ag0
(g1
g2
(dp4033
g9
I627732268
sg3106
S'G098'
p4034
stp4035
Rp4036
ag0
(g1
g2
(dp4037
g9
I-72272288
sg3106
S'G100'
p4038
stp4039
Rp4040
ag0
(g1
g2
(dp4041
g9
I1555486600
sg3106
S'G091'
p4042
stp4043
Rp4044
aa(lp4045
g0
(g1
g2
(dp4046
g9
I-223269323
sg3106
S'SnowQueen_A4u'
p4047
stp4048
Rp4049
ag0
(g1
g2
(dp4050
g9
I-492173535
sg3106
S'G110'
p4051
stp4052
Rp4053
ag0
(g1
g2
(dp4054
g9
I1708499907
sg3106
S'G107'
p4055
stp4056
Rp4057
ag0
(g1
g2
(dp4058
g9
I-1783810121
sg3106
S'G111'
p4059
stp4060
Rp4061
ag0
(g1
g2
(dp4062
g9
I-52628871
sg3106
S'G104'
p4063
stp4064
Rp4065
aa(lp4066
g0
(g1
g2
(dp4067
g9
I197763604
sg3106
S'G116'
p4068
stp4069
Rp4070
ag0
(g1
g2
(dp4071
g9
I-328102125
sg3106
S'G118'
p4072
stp4073
Rp4074
ag0
(g1
g2
(dp4075
g9
I212100621
sg3106
S'G112'
p4076
stp4077
Rp4078
ag0
(g1
g2
(dp4079
g9
I2074302107
sg3106
S'G113'
p4080
stp4081
Rp4082
ag0
(g1
g2
(dp4083
g9
I-1832848466
sg3106
S'G115'
p4084
stp4085
Rp4086
aa(lp4087
g0
(g1
g2
(dp4088
g9
I-1175609235
sg3106
S'G125'
p4089
stp4090
Rp4091
ag0
(g1
g2
(dp4092
g9
I-1098881932
sg3106
S'G121'
p4093
stp4094
Rp4095
ag0
(g1
g2
(dp4096
g9
I1351484760
sg3106
S'G123'
p4097
stp4098
Rp4099
ag0
(g1
g2
(dp4100
g9
I-913877790
sg3106
S'G120'
p4101
stp4102
Rp4103
aasg3248
S'/Heroes/SnowQueen/_.HROB'
p4104
sg9
I-447734811
sg3250
I100
sg3251
I86400
sg3252
S'snowqueen'
p4105
stp4106
Rp4107
sg2979
g0
(g3104
g2
(dp4108
g3106
g2979
sg3107
I01
sg3108
S'Male'
p4109
sg3110
(dp4110
I-1804640896
I1
sI2093912706
I5
sI136355472
I3
sI1708499907
I4
sI197763604
I5
sI-2106749244
I4
sI943565473
I3
sI1548840869
I2
sI504232360
I5
sI-1859530966
I2
sI627732268
I3
sI-1832848466
I5
sI-1805198929
I4
sI-439893192
I5
sI1382899642
I3
sI1870268347
I1
sI-315222848
I1
sI-1086190013
I2
sI-1834149052
I2
sI-492173535
I4
sI663303630
I6
sI315790165
I4
sI-1708055466
I1
sI1351484760
I6
sI-363081511
I3
sI-913877790
I6
sI54031852
I2
sI1668943341
I1
sI1363963759
I2
sI-1934227722
I3
sI1950303610
I1
sI-823488261
I6
ssg3112
(lp4111
(lp4112
g0
(g1
g2
(dp4113
g9
I-1708055466
sg3106
S'Faceless_A1'
p4114
stp4115
Rp4116
ag0
(g1
g2
(dp4117
g9
I1950303610
sg3106
S'Faceless_A3'
p4118
stp4119
Rp4120
ag0
(g1
g2
(dp4121
g9
I1668943341
sg3106
S'G003'
p4122
stp4123
Rp4124
ag0
(g1
g2
(dp4125
g9
I-1804640896
sg3106
S'G011'
p4126
stp4127
Rp4128
ag0
(g1
g2
(dp4129
g9
I1870268347
sg3106
S'Gender_M_1'
p4130
stp4131
Rp4132
ag0
(g1
g2
(dp4133
g9
I-315222848
sg3106
S'Faceless_A0'
p4134
stp4135
Rp4136
aa(lp4137
g0
(g1
g2
(dp4138
g9
I-1834149052
sg3106
S'Faceless_A1u1'
p4139
stp4140
Rp4141
ag0
(g1
g2
(dp4142
g9
I-1859530966
sg3106
S'Faceless_A3u1'
p4143
stp4144
Rp4145
ag0
(g1
g2
(dp4146
g9
I54031852
sg3106
S'Faceless_A2'
p4147
stp4148
Rp4149
ag0
(g1
g2
(dp4150
g9
I-1086190013
sg3106
S'G021'
p4151
stp4152
Rp4153
ag0
(g1
g2
(dp4154
g9
I1363963759
sg3106
S'G023'
p4155
stp4156
Rp4157
ag0
(g1
g2
(dp4158
g9
I1548840869
sg3106
S'G076'
p4159
stp4160
Rp4161
aa(lp4162
g0
(g1
g2
(dp4163
g9
I-363081511
sg3106
S'Faceless_A4'
p4164
stp4165
Rp4166
ag0
(g1
g2
(dp4167
g9
I136355472
sg3106
S'Faceless_A3u2'
p4168
stp4169
Rp4170
ag0
(g1
g2
(dp4171
g9
I627732268
sg3106
S'G098'
p4172
stp4173
Rp4174
ag0
(g1
g2
(dp4175
g9
I1382899642
sg3106
S'G099'
p4176
stp4177
Rp4178
ag0
(g1
g2
(dp4179
g9
I943565473
sg3106
S'G036'
p4180
stp4181
Rp4182
ag0
(g1
g2
(dp4183
g9
I-1934227722
sg3106
S'G101'
p4184
stp4185
Rp4186
aa(lp4187
g0
(g1
g2
(dp4188
g9
I-1805198929
sg3106
S'Faceless_A4u1'
p4189
stp4190
Rp4191
ag0
(g1
g2
(dp4192
g9
I-492173535
sg3106
S'G110'
p4193
stp4194
Rp4195
ag0
(g1
g2
(dp4196
g9
I-2106749244
sg3106
S'G109'
p4197
stp4198
Rp4199
ag0
(g1
g2
(dp4200
g9
I315790165
sg3106
S'G106'
p4201
stp4202
Rp4203
ag0
(g1
g2
(dp4204
g9
I1708499907
sg3106
S'G107'
p4205
stp4206
Rp4207
aa(lp4208
g0
(g1
g2
(dp4209
g9
I-439893192
sg3106
S'G114'
p4210
stp4211
Rp4212
ag0
(g1
g2
(dp4213
g9
I-1832848466
sg3106
S'G115'
p4214
stp4215
Rp4216
ag0
(g1
g2
(dp4217
g9
I197763604
sg3106
S'G116'
p4218
stp4219
Rp4220
ag0
(g1
g2
(dp4221
g9
I2093912706
sg3106
S'G117'
p4222
stp4223
Rp4224
ag0
(g1
g2
(dp4225
g9
I504232360
sg3106
S'G053'
p4226
stp4227
Rp4228
aa(lp4229
g0
(g1
g2
(dp4230
g9
I-913877790
sg3106
S'G120'
p4231
stp4232
Rp4233
ag0
(g1
g2
(dp4234
g9
I663303630
sg3106
S'G122'
p4235
stp4236
Rp4237
ag0
(g1
g2
(dp4238
g9
I1351484760
sg3106
S'G123'
p4239
stp4240
Rp4241
ag0
(g1
g2
(dp4242
g9
I-823488261
sg3106
S'G124'
p4243
stp4244
Rp4245
aasg3248
S'/Heroes/Faceless/_.HROB'
p4246
sg9
I1932001038
sg3250
I100
sg3251
I86400
sg3252
S'faceless'
p4247
stp4248
Rp4249
sg2989
g0
(g3104
g2
(dp4250
g3106
g2989
sg3107
I01
sg3108
S'Male'
p4251
sg3110
(dp4252
I-595421952
I3
sI-1504100606
I2
sI-1965542778
I4
sI2093912706
I5
sI-469391089
I1
sI-328102125
I5
sI2074302107
I5
sI-492173535
I4
sI1548840869
I2
sI-1832848466
I5
sI-1699424846
I3
sI1382899642
I3
sI1870268347
I1
sI-979786687
I2
sI-139475261
I2
sI-1934227722
I3
sI-1023676729
I1
sI-1299113400
I3
sI364861260
I4
sI663303630
I6
sI212100621
I5
sI-1241719215
I1
sI315790165
I4
sI556178400
I3
sI-913877790
I6
sI754290667
I1
sI1668943341
I1
sI-1948531985
I4
sI-1098881932
I6
sI1445047158
I2
sI-823488261
I6
sI1542635389
I2
ssg3112
(lp4253
(lp4254
g0
(g1
g2
(dp4255
g9
I-1023676729
sg3106
S'Frogenglut_A1'
p4256
stp4257
Rp4258
ag0
(g1
g2
(dp4259
g9
I754290667
sg3106
S'Frogenglut_A3'
p4260
stp4261
Rp4262
ag0
(g1
g2
(dp4263
g9
I1668943341
sg3106
S'G003'
p4264
stp4265
Rp4266
ag0
(g1
g2
(dp4267
g9
I-469391089
sg3106
S'G014'
p4268
stp4269
Rp4270
ag0
(g1
g2
(dp4271
g9
I1870268347
sg3106
S'Gender_M_1'
p4272
stp4273
Rp4274
ag0
(g1
g2
(dp4275
g9
I-1241719215
sg3106
S'Frogenglut_A0'
p4276
stp4277
Rp4278
aa(lp4279
g0
(g1
g2
(dp4280
g9
I-139475261
sg3106
S'Frogenglut_A1u'
p4281
stp4282
Rp4283
ag0
(g1
g2
(dp4284
g9
I-979786687
sg3106
S'Frogenglut_A3u'
p4285
stp4286
Rp4287
ag0
(g1
g2
(dp4288
g9
I1542635389
sg3106
S'Frogenglut_A2'
p4289
stp4290
Rp4291
ag0
(g1
g2
(dp4292
g9
I-1504100606
sg3106
S'G031'
p4293
stp4294
Rp4295
ag0
(g1
g2
(dp4296
g9
I1445047158
sg3106
S'G027'
p4297
stp4298
Rp4299
ag0
(g1
g2
(dp4300
g9
I1548840869
sg3106
S'G076'
p4301
stp4302
Rp4303
aa(lp4304
g0
(g1
g2
(dp4305
g9
I-1299113400
sg3106
S'Frogenglut_A4'
p4306
stp4307
Rp4308
ag0
(g1
g2
(dp4309
g9
I556178400
sg3106
S'G026'
p4310
stp4311
Rp4312
ag0
(g1
g2
(dp4313
g9
I-595421952
sg3106
S'Frogenglut_A2u'
p4314
stp4315
Rp4316
ag0
(g1
g2
(dp4317
g9
I1382899642
sg3106
S'G099'
p4318
stp4319
Rp4320
ag0
(g1
g2
(dp4321
g9
I-1934227722
sg3106
S'G101'
p4322
stp4323
Rp4324
ag0
(g1
g2
(dp4325
g9
I-1699424846
sg3106
S'G019'
p4326
stp4327
Rp4328
aa(lp4329
g0
(g1
g2
(dp4330
g9
I-1965542778
sg3106
S'Frogenglut_A4u'
p4331
stp4332
Rp4333
ag0
(g1
g2
(dp4334
g9
I-492173535
sg3106
S'G110'
p4335
stp4336
Rp4337
ag0
(g1
g2
(dp4338
g9
I315790165
sg3106
S'G106'
p4339
stp4340
Rp4341
ag0
(g1
g2
(dp4342
g9
I-1948531985
sg3106
S'G105'
p4343
stp4344
Rp4345
ag0
(g1
g2
(dp4346
g9
I364861260
sg3106
S'G102'
p4347
stp4348
Rp4349
aa(lp4350
g0
(g1
g2
(dp4351
g9
I2093912706
sg3106
S'G117'
p4352
stp4353
Rp4354
ag0
(g1
g2
(dp4355
g9
I212100621
sg3106
S'G112'
p4356
stp4357
Rp4358
ag0
(g1
g2
(dp4359
g9
I2074302107
sg3106
S'G113'
p4360
stp4361
Rp4362
ag0
(g1
g2
(dp4363
g9
I-1832848466
sg3106
S'G115'
p4364
stp4365
Rp4366
ag0
(g1
g2
(dp4367
g9
I-328102125
sg3106
S'G118'
p4368
stp4369
Rp4370
aa(lp4371
g0
(g1
g2
(dp4372
g9
I-1098881932
sg3106
S'G121'
p4373
stp4374
Rp4375
ag0
(g1
g2
(dp4376
g9
I663303630
sg3106
S'G122'
p4377
stp4378
Rp4379
ag0
(g1
g2
(dp4380
g9
I-823488261
sg3106
S'G124'
p4381
stp4382
Rp4383
ag0
(g1
g2
(dp4384
g9
I-913877790
sg3106
S'G120'
p4385
stp4386
Rp4387
aasg3248
S'/Heroes/Frogenglut/_.HROB'
p4388
sg9
I987473347
sg3250
I100
sg3251
I86400
sg3252
S'frogenglut'
p4389
stp4390
Rp4391
sg2991
g0
(g3104
g2
(dp4392
g3106
g2991
sg3107
I01
sg3108
S'Male'
p4393
sg3110
(dp4394
I2093912706
I5
sI-1175609235
I6
sI1708499907
I4
sI197763604
I5
sI-1981865952
I5
sI1548840869
I2
sI627732268
I3
sI-1832848466
I5
sI1382899642
I3
sI1870268347
I1
sI-82318528
I4
sI-1086190013
I2
sI-1934227722
I3
sI-750965562
I1
sI-1554524087
I3
sI-513461300
I2
sI663303630
I6
sI-1539695536
I1
sI597842641
I2
sI315790165
I4
sI1351484760
I6
sI-72272288
I3
sI-1866198687
I4
sI-823488261
I6
sI1026772458
I2
sI-1163195541
I3
sI1668943341
I1
sI-328102125
I5
sI1445047158
I2
sI-52628871
I4
sI343752059
I1
sI1244953980
I1
ssg3112
(lp4395
(lp4396
g0
(g1
g2
(dp4397
g9
I-750965562
sg3106
S'Ratcatcher_A1'
p4398
stp4399
Rp4400
ag0
(g1
g2
(dp4401
g9
I1244953980
sg3106
S'Ratcatcher_A2'
p4402
stp4403
Rp4404
ag0
(g1
g2
(dp4405
g9
I343752059
sg3106
S'G002'
p4406
stp4407
Rp4408
ag0
(g1
g2
(dp4409
g9
I1668943341
sg3106
S'G003'
p4410
stp4411
Rp4412
ag0
(g1
g2
(dp4413
g9
I1870268347
sg3106
S'Gender_M_1'
p4414
stp4415
Rp4416
ag0
(g1
g2
(dp4417
g9
I-1539695536
sg3106
S'Ratcatcher_A0'
p4418
stp4419
Rp4420
aa(lp4421
g0
(g1
g2
(dp4422
g9
I-513461300
sg3106
S'Ratcatcher_A1_3_Upg'
p4423
stp4424
Rp4425
ag0
(g1
g2
(dp4426
g9
I597842641
sg3106
S'Ratcatcher_A2_Upg1'
p4427
stp4428
Rp4429
ag0
(g1
g2
(dp4430
g9
I1026772458
sg3106
S'Ratcatcher_A3'
p4431
stp4432
Rp4433
ag0
(g1
g2
(dp4434
g9
I1445047158
sg3106
S'G027'
p4435
stp4436
Rp4437
ag0
(g1
g2
(dp4438
g9
I-1086190013
sg3106
S'G021'
p4439
stp4440
Rp4441
ag0
(g1
g2
(dp4442
g9
I1548840869
sg3106
S'G076'
p4443
stp4444
Rp4445
aa(lp4446
g0
(g1
g2
(dp4447
g9
I-1554524087
sg3106
S'Ratcatcher_A4'
p4448
stp4449
Rp4450
ag0
(g1
g2
(dp4451
g9
I-1163195541
sg3106
S'Ratcatcher_A2_Upg2'
p4452
stp4453
Rp4454
ag0
(g1
g2
(dp4455
g9
I627732268
sg3106
S'G098'
p4456
stp4457
Rp4458
ag0
(g1
g2
(dp4459
g9
I1382899642
sg3106
S'G099'
p4460
stp4461
Rp4462
ag0
(g1
g2
(dp4463
g9
I-72272288
sg3106
S'G100'
p4464
stp4465
Rp4466
ag0
(g1
g2
(dp4467
g9
I-1934227722
sg3106
S'G101'
p4468
stp4469
Rp4470
aa(lp4471
g0
(g1
g2
(dp4472
g9
I-82318528
sg3106
S'Ratcatcher_A4_Upg'
p4473
stp4474
Rp4475
ag0
(g1
g2
(dp4476
g9
I-1866198687
sg3106
S'G048'
p4477
stp4478
Rp4479
ag0
(g1
g2
(dp4480
g9
I315790165
sg3106
S'G106'
p4481
stp4482
Rp4483
ag0
(g1
g2
(dp4484
g9
I1708499907
sg3106
S'G107'
p4485
stp4486
Rp4487
ag0
(g1
g2
(dp4488
g9
I-52628871
sg3106
S'G104'
p4489
stp4490
Rp4491
aa(lp4492
g0
(g1
g2
(dp4493
g9
I197763604
sg3106
S'G116'
p4494
stp4495
Rp4496
ag0
(g1
g2
(dp4497
g9
I2093912706
sg3106
S'G117'
p4498
stp4499
Rp4500
ag0
(g1
g2
(dp4501
g9
I-328102125
sg3106
S'G118'
p4502
stp4503
Rp4504
ag0
(g1
g2
(dp4505
g9
I-1832848466
sg3106
S'G115'
p4506
stp4507
Rp4508
ag0
(g1
g2
(dp4509
g9
I-1981865952
sg3106
S'G058'
p4510
stp4511
Rp4512
aa(lp4513
g0
(g1
g2
(dp4514
g9
I663303630
sg3106
S'G122'
p4515
stp4516
Rp4517
ag0
(g1
g2
(dp4518
g9
I1351484760
sg3106
S'G123'
p4519
stp4520
Rp4521
ag0
(g1
g2
(dp4522
g9
I-823488261
sg3106
S'G124'
p4523
stp4524
Rp4525
ag0
(g1
g2
(dp4526
g9
I-1175609235
sg3106
S'G125'
p4527
stp4528
Rp4529
aasg3248
S'/Heroes/Ratcatcher/_.HROB'
p4530
sg9
I-834226607
sg3250
I100
sg3251
I86400
sg3252
S'ratcatcher'
p4531
stp4532
Rp4533
sg2997
g0
(g3104
g2
(dp4534
g3106
g2997
sg3107
I01
sg3108
S'Male'
p4535
sg3110
(dp4536
I-1686716539
I5
sI752624391
I5
sI-1412609016
I4
sI-1175609235
I6
sI1708499907
I4
sI1548840869
I2
sI364861260
I4
sI627732268
I3
sI-1832848466
I5
sI1329240631
I2
sI-439893192
I5
sI1382899642
I3
sI1870268347
I1
sI-1086190013
I2
sI-1934227722
I3
sI-92765111
I1
sI-1998341044
I3
sI-692406195
I2
sI-1921010465
I2
sI-328102125
I5
sI663303630
I6
sI850056799
I4
sI-72272288
I3
sI-913877790
I6
sI343336293
I1
sI1668943341
I1
sI1363963759
I2
sI1668404723
I1
sI-1098881932
I6
sI300609014
I4
sI343752059
I1
sI320545148
I3
ssg3112
(lp4537
(lp4538
g0
(g1
g2
(dp4539
g9
I1668404723
sg3106
S'Hunter_A1'
p4540
stp4541
Rp4542
ag0
(g1
g2
(dp4543
g9
I-92765111
sg3106
S'Hunter_A2'
p4544
stp4545
Rp4546
ag0
(g1
g2
(dp4547
g9
I1668943341
sg3106
S'G003'
p4548
stp4549
Rp4550
ag0
(g1
g2
(dp4551
g9
I343752059
sg3106
S'G002'
p4552
stp4553
Rp4554
ag0
(g1
g2
(dp4555
g9
I1870268347
sg3106
S'Gender_M_1'
p4556
stp4557
Rp4558
ag0
(g1
g2
(dp4559
g9
I343336293
sg3106
S'Hunter_A0'
p4560
stp4561
Rp4562
aa(lp4563
g0
(g1
g2
(dp4564
g9
I-692406195
sg3106
S'Hunter_A1u'
p4565
stp4566
Rp4567
ag0
(g1
g2
(dp4568
g9
I-1921010465
sg3106
S'Hunter_A3'
p4569
stp4570
Rp4571
ag0
(g1
g2
(dp4572
g9
I1363963759
sg3106
S'G023'
p4573
stp4574
Rp4575
ag0
(g1
g2
(dp4576
g9
I-1086190013
sg3106
S'G021'
p4577
stp4578
Rp4579
ag0
(g1
g2
(dp4580
g9
I1329240631
sg3106
S'G037'
p4581
stp4582
Rp4583
ag0
(g1
g2
(dp4584
g9
I1548840869
sg3106
S'G076'
p4585
stp4586
Rp4587
aa(lp4588
g0
(g1
g2
(dp4589
g9
I320545148
sg3106
S'Hunter_A4'
p4590
stp4591
Rp4592
ag0
(g1
g2
(dp4593
g9
I-1998341044
sg3106
S'Hunter_A3u1'
p4594
stp4595
Rp4596
ag0
(g1
g2
(dp4597
g9
I627732268
sg3106
S'G098'
p4598
stp4599
Rp4600
ag0
(g1
g2
(dp4601
g9
I1382899642
sg3106
S'G099'
p4602
stp4603
Rp4604
ag0
(g1
g2
(dp4605
g9
I-72272288
sg3106
S'G100'
p4606
stp4607
Rp4608
ag0
(g1
g2
(dp4609
g9
I-1934227722
sg3106
S'G101'
p4610
stp4611
Rp4612
aa(lp4613
g0
(g1
g2
(dp4614
g9
I-1412609016
sg3106
S'Hunter_A4u'
p4615
stp4616
Rp4617
ag0
(g1
g2
(dp4618
g9
I300609014
sg3106
S'Hunter_A3u2'
p4619
stp4620
Rp4621
ag0
(g1
g2
(dp4622
g9
I364861260
sg3106
S'G102'
p4623
stp4624
Rp4625
ag0
(g1
g2
(dp4626
g9
I850056799
sg3106
S'G080'
p4627
stp4628
Rp4629
ag0
(g1
g2
(dp4630
g9
I1708499907
sg3106
S'G107'
p4631
stp4632
Rp4633
aa(lp4634
g0
(g1
g2
(dp4635
g9
I-1686716539
sg3106
S'G119'
p4636
stp4637
Rp4638
ag0
(g1
g2
(dp4639
g9
I-439893192
sg3106
S'G114'
p4640
stp4641
Rp4642
ag0
(g1
g2
(dp4643
g9
I-328102125
sg3106
S'G118'
p4644
stp4645
Rp4646
ag0
(g1
g2
(dp4647
g9
I-1832848466
sg3106
S'G115'
p4648
stp4649
Rp4650
ag0
(g1
g2
(dp4651
g9
I752624391
sg3106
S'G094'
p4652
stp4653
Rp4654
aa(lp4655
g0
(g1
g2
(dp4656
g9
I-913877790
sg3106
S'G120'
p4657
stp4658
Rp4659
ag0
(g1
g2
(dp4660
g9
I663303630
sg3106
S'G122'
p4661
stp4662
Rp4663
ag0
(g1
g2
(dp4664
g9
I-1175609235
sg3106
S'G125'
p4665
stp4666
Rp4667
ag0
(g1
g2
(dp4668
g9
I-1098881932
sg3106
S'G121'
p4669
stp4670
Rp4671
aasg3248
S'/Heroes/Hunter/_.HROB'
p4672
sg9
I1255640165
sg3250
I100
sg3251
I86400
sg3252
S'hunter'
p4673
stp4674
Rp4675
sg2992
g0
(g3104
g2
(dp4676
g3106
g2992
sg3107
I01
sg3108
S'Male'
p4677
sg3110
(dp4678
I2093912706
I5
sI-1188794867
I2
sI-1175609235
I6
sI-328102125
I5
sI197763604
I5
sI-1832848466
I5
sI-836542821
I1
sI-492173535
I4
sI1462374177
I1
sI1548840869
I2
sI-1392367961
I2
sI627732268
I3
sI658570158
I3
sI-19394378
I5
sI539836343
I1
sI943565473
I3
sI1382899642
I3
sI1870268347
I1
sI1708499907
I4
sI-675121721
I3
sI-1783810121
I4
sI-819397940
I2
sI663303630
I6
sI315790165
I4
sI1709353431
I4
sI1351484760
I6
sI-823488261
I6
sI1668943341
I1
sI1363963759
I2
sI-1934227722
I3
sI-358458249
I2
sI343752059
I1
ssg3112
(lp4679
(lp4680
g0
(g1
g2
(dp4681
g9
I-836542821
sg3106
S'Thunder_A2'
p4682
stp4683
Rp4684
ag0
(g1
g2
(dp4685
g9
I1462374177
sg3106
S'Thunder_A1'
p4686
stp4687
Rp4688
ag0
(g1
g2
(dp4689
g9
I343752059
sg3106
S'G002'
p4690
stp4691
Rp4692
ag0
(g1
g2
(dp4693
g9
I1668943341
sg3106
S'G003'
p4694
stp4695
Rp4696
ag0
(g1
g2
(dp4697
g9
I1870268347
sg3106
S'Gender_M_1'
p4698
stp4699
Rp4700
ag0
(g1
g2
(dp4701
g9
I539836343
sg3106
S'Thunder_A0'
p4702
stp4703
Rp4704
aa(lp4705
g0
(g1
g2
(dp4706
g9
I-358458249
sg3106
S'Thunder_A2_Upg'
p4707
stp4708
Rp4709
ag0
(g1
g2
(dp4710
g9
I-1392367961
sg3106
S'Thunder_A1_Upg'
p4711
stp4712
Rp4713
ag0
(g1
g2
(dp4714
g9
I-1188794867
sg3106
S'Thunder_A3'
p4715
stp4716
Rp4717
ag0
(g1
g2
(dp4718
g9
I1363963759
sg3106
S'G023'
p4719
stp4720
Rp4721
ag0
(g1
g2
(dp4722
g9
I-819397940
sg3106
S'G024'
p4723
stp4724
Rp4725
ag0
(g1
g2
(dp4726
g9
I1548840869
sg3106
S'G076'
p4727
stp4728
Rp4729
aa(lp4730
g0
(g1
g2
(dp4731
g9
I658570158
sg3106
S'Thunder_A4'
p4732
stp4733
Rp4734
ag0
(g1
g2
(dp4735
g9
I627732268
sg3106
S'G098'
p4736
stp4737
Rp4738
ag0
(g1
g2
(dp4739
g9
I-675121721
sg3106
S'Thunder_A3_Upg'
p4740
stp4741
Rp4742
ag0
(g1
g2
(dp4743
g9
I1382899642
sg3106
S'G099'
p4744
stp4745
Rp4746
ag0
(g1
g2
(dp4747
g9
I-1934227722
sg3106
S'G101'
p4748
stp4749
Rp4750
ag0
(g1
g2
(dp4751
g9
I943565473
sg3106
S'G036'
p4752
stp4753
Rp4754
aa(lp4755
g0
(g1
g2
(dp4756
g9
I1709353431
sg3106
S'Thunder_A4_Upg'
p4757
stp4758
Rp4759
ag0
(g1
g2
(dp4760
g9
I-492173535
sg3106
S'G110'
p4761
stp4762
Rp4763
ag0
(g1
g2
(dp4764
g9
I315790165
sg3106
S'G106'
p4765
stp4766
Rp4767
ag0
(g1
g2
(dp4768
g9
I1708499907
sg3106
S'G107'
p4769
stp4770
Rp4771
ag0
(g1
g2
(dp4772
g9
I-1783810121
sg3106
S'G111'
p4773
stp4774
Rp4775
aa(lp4776
g0
(g1
g2
(dp4777
g9
I-1832848466
sg3106
S'G115'
p4778
stp4779
Rp4780
ag0
(g1
g2
(dp4781
g9
I197763604
sg3106
S'G116'
p4782
stp4783
Rp4784
ag0
(g1
g2
(dp4785
g9
I2093912706
sg3106
S'G117'
p4786
stp4787
Rp4788
ag0
(g1
g2
(dp4789
g9
I-328102125
sg3106
S'G118'
p4790
stp4791
Rp4792
ag0
(g1
g2
(dp4793
g9
I-19394378
sg3106
S'G059'
p4794
stp4795
Rp4796
aa(lp4797
g0
(g1
g2
(dp4798
g9
I663303630
sg3106
S'G122'
p4799
stp4800
Rp4801
ag0
(g1
g2
(dp4802
g9
I-823488261
sg3106
S'G124'
p4803
stp4804
Rp4805
ag0
(g1
g2
(dp4806
g9
I1351484760
sg3106
S'G123'
p4807
stp4808
Rp4809
ag0
(g1
g2
(dp4810
g9
I-1175609235
sg3106
S'G125'
p4811
stp4812
Rp4813
aasg3248
S'/Heroes/ThunderGod/_.HROB'
p4814
sg9
I571020430
sg3250
I100
sg3251
I86400
sg3252
S'thundergod'
p4815
stp4816
Rp4817
sg2988
g0
(g3104
g2
(dp4818
g3106
g2988
sg3107
I01
sg3108
S'Female'
p4819
sg3110
(dp4820
I-1504100606
I2
sI683681156
I4
sI452347654
I2
sI212100621
I5
sI1351484760
I6
sI1708499907
I4
sI197763604
I5
sI-1948531985
I4
sI-492173535
I4
sI2074302107
I5
sI1548840869
I2
sI627732268
I3
sI-1699424846
I3
sI-328102125
I5
sI-1921749823
I1
sI1736553283
I4
sI836441285
I3
sI603523911
I1
sI1402208200
I3
sI-819397940
I2
sI1425947601
I1
sI2093912706
I5
sI-1978029864
I1
sI1664084058
I1
sI-72272288
I3
sI-913877790
I6
sI-839423381
I1
sI-1175609235
I6
sI1363963759
I2
sI-2085624589
I3
sI-1098881932
I6
sI-1158653187
I2
ssg3112
(lp4821
(lp4822
g0
(g1
g2
(dp4823
g9
I603523911
sg3106
S'Unicorn_A1'
p4824
stp4825
Rp4826
ag0
(g1
g2
(dp4827
g9
I-839423381
sg3106
S'Unicorn_A3'
p4828
stp4829
Rp4830
ag0
(g1
g2
(dp4831
g9
I-1978029864
sg3106
S'G005'
p4832
stp4833
Rp4834
ag0
(g1
g2
(dp4835
g9
I-1921749823
sg3106
S'G001'
p4836
stp4837
Rp4838
ag0
(g1
g2
(dp4839
g9
I1664084058
sg3106
S'Gender_F_1'
p4840
stp4841
Rp4842
ag0
(g1
g2
(dp4843
g9
I1425947601
sg3106
S'Unicorn_A0'
p4844
stp4845
Rp4846
aa(lp4847
g0
(g1
g2
(dp4848
g9
I452347654
sg3106
S'Unicorn_A1u'
p4849
stp4850
Rp4851
ag0
(g1
g2
(dp4852
g9
I-1158653187
sg3106
S'Unicorn_A2'
p4853
stp4854
Rp4855
ag0
(g1
g2
(dp4856
g9
I-819397940
sg3106
S'G024'
p4857
stp4858
Rp4859
ag0
(g1
g2
(dp4860
g9
I1363963759
sg3106
S'G023'
p4861
stp4862
Rp4863
ag0
(g1
g2
(dp4864
g9
I-1504100606
sg3106
S'G031'
p4865
stp4866
Rp4867
ag0
(g1
g2
(dp4868
g9
I1548840869
sg3106
S'G076'
p4869
stp4870
Rp4871
aa(lp4872
g0
(g1
g2
(dp4873
g9
I1402208200
sg3106
S'Unicorn_A4'
p4874
stp4875
Rp4876
ag0
(g1
g2
(dp4877
g9
I836441285
sg3106
S'Unicorn_A2u'
p4878
stp4879
Rp4880
ag0
(g1
g2
(dp4881
g9
I627732268
sg3106
S'G098'
p4882
stp4883
Rp4884
ag0
(g1
g2
(dp4885
g9
I-72272288
sg3106
S'G100'
p4886
stp4887
Rp4888
ag0
(g1
g2
(dp4889
g9
I-2085624589
sg3106
S'G009'
p4890
stp4891
Rp4892
ag0
(g1
g2
(dp4893
g9
I-1699424846
sg3106
S'G019'
p4894
stp4895
Rp4896
aa(lp4897
g0
(g1
g2
(dp4898
g9
I1736553283
sg3106
S'Unicorn_A4u'
p4899
stp4900
Rp4901
ag0
(g1
g2
(dp4902
g9
I683681156
sg3106
S'Unicorn_A3u'
p4903
stp4904
Rp4905
ag0
(g1
g2
(dp4906
g9
I-492173535
sg3106
S'G110'
p4907
stp4908
Rp4909
ag0
(g1
g2
(dp4910
g9
I1708499907
sg3106
S'G107'
p4911
stp4912
Rp4913
ag0
(g1
g2
(dp4914
g9
I-1948531985
sg3106
S'G105'
p4915
stp4916
Rp4917
aa(lp4918
g0
(g1
g2
(dp4919
g9
I212100621
sg3106
S'G112'
p4920
stp4921
Rp4922
ag0
(g1
g2
(dp4923
g9
I197763604
sg3106
S'G116'
p4924
stp4925
Rp4926
ag0
(g1
g2
(dp4927
g9
I2074302107
sg3106
S'G113'
p4928
stp4929
Rp4930
ag0
(g1
g2
(dp4931
g9
I2093912706
sg3106
S'G117'
p4932
stp4933
Rp4934
ag0
(g1
g2
(dp4935
g9
I-328102125
sg3106
S'G118'
p4936
stp4937
Rp4938
aa(lp4939
g0
(g1
g2
(dp4940
g9
I-1098881932
sg3106
S'G121'
p4941
stp4942
Rp4943
ag0
(g1
g2
(dp4944
g9
I1351484760
sg3106
S'G123'
p4945
stp4946
Rp4947
ag0
(g1
g2
(dp4948
g9
I-1175609235
sg3106
S'G125'
p4949
stp4950
Rp4951
ag0
(g1
g2
(dp4952
g9
I-913877790
sg3106
S'G120'
p4953
stp4954
Rp4955
aasg3248
S'/Heroes/Unicorn/_.HROB'
p4956
sg9
I1492899903
sg3250
I100
sg3251
I86400
sg3252
S'unicorn'
p4957
stp4958
Rp4959
sg3001
g0
(g3104
g2
(dp4960
g3106
g3001
sg3107
I01
sg3108
S'Female'
p4961
sg3110
(dp4962
I2093912706
I5
sI1508604677
I3
sI696356746
I1
sI-853548275
I3
sI-14057073
I2
sI1351484760
I6
sI-328102125
I5
sI197763604
I5
sI1363963759
I2
sI1585889052
I1
sI1656252378
I4
sI1548840869
I2
sI-946868570
I2
sI627732268
I3
sI-1333207504
I1
sI-1699424846
I3
sI-19394378
I5
sI1382899642
I3
sI-1921749823
I1
sI1708499907
I4
sI-819397940
I2
sI-48326578
I1
sI315790165
I4
sI663303630
I6
sI1162501860
I5
sI1664084058
I1
sI-60627234
I2
sI-1866198687
I4
sI-913877790
I6
sI1701558116
I3
sI-1175609235
I6
sI-1948531985
I4
ssg3112
(lp4963
(lp4964
g0
(g1
g2
(dp4965
g9
I696356746
sg3106
S'Invisible_A1'
p4966
stp4967
Rp4968
ag0
(g1
g2
(dp4969
g9
I-1333207504
sg3106
S'Invisible_A2'
p4970
stp4971
Rp4972
ag0
(g1
g2
(dp4973
g9
I-1921749823
sg3106
S'G001'
p4974
stp4975
Rp4976
ag0
(g1
g2
(dp4977
g9
I-48326578
sg3106
S'G004'
p4978
stp4979
Rp4980
ag0
(g1
g2
(dp4981
g9
I1664084058
sg3106
S'Gender_F_1'
p4982
stp4983
Rp4984
ag0
(g1
g2
(dp4985
g9
I1585889052
sg3106
S'Invisible_A0'
p4986
stp4987
Rp4988
aa(lp4989
g0
(g1
g2
(dp4990
g9
I-14057073
sg3106
S'Invisible_A1u'
p4991
stp4992
Rp4993
ag0
(g1
g2
(dp4994
g9
I-60627234
sg3106
S'Invisible_A2u1'
p4995
stp4996
Rp4997
ag0
(g1
g2
(dp4998
g9
I-946868570
sg3106
S'Invisible_A3'
p4999
stp5000
Rp5001
ag0
(g1
g2
(dp5002
g9
I1363963759
sg3106
S'G023'
p5003
stp5004
Rp5005
ag0
(g1
g2
(dp5006
g9
I-819397940
sg3106
S'G024'
p5007
stp5008
Rp5009
ag0
(g1
g2
(dp5010
g9
I1548840869
sg3106
S'G076'
p5011
stp5012
Rp5013
aa(lp5014
g0
(g1
g2
(dp5015
g9
I1508604677
sg3106
S'Invisible_A4'
p5016
stp5017
Rp5018
ag0
(g1
g2
(dp5019
g9
I1701558116
sg3106
S'Invisible_A2u2'
p5020
stp5021
Rp5022
ag0
(g1
g2
(dp5023
g9
I-853548275
sg3106
S'Invisible_A3u'
p5024
stp5025
Rp5026
ag0
(g1
g2
(dp5027
g9
I627732268
sg3106
S'G098'
p5028
stp5029
Rp5030
ag0
(g1
g2
(dp5031
g9
I1382899642
sg3106
S'G099'
p5032
stp5033
Rp5034
ag0
(g1
g2
(dp5035
g9
I-1699424846
sg3106
S'G019'
p5036
stp5037
Rp5038
aa(lp5039
g0
(g1
g2
(dp5040
g9
I-1866198687
sg3106
S'G048'
p5041
stp5042
Rp5043
ag0
(g1
g2
(dp5044
g9
I1708499907
sg3106
S'G107'
p5045
stp5046
Rp5047
ag0
(g1
g2
(dp5048
g9
I315790165
sg3106
S'G106'
p5049
stp5050
Rp5051
ag0
(g1
g2
(dp5052
g9
I-1948531985
sg3106
S'G105'
p5053
stp5054
Rp5055
ag0
(g1
g2
(dp5056
g9
I1656252378
sg3106
S'G103'
p5057
stp5058
Rp5059
aa(lp5060
g0
(g1
g2
(dp5061
g9
I-328102125
sg3106
S'G118'
p5062
stp5063
Rp5064
ag0
(g1
g2
(dp5065
g9
I197763604
sg3106
S'G116'
p5066
stp5067
Rp5068
ag0
(g1
g2
(dp5069
g9
I2093912706
sg3106
S'G117'
p5070
stp5071
Rp5072
ag0
(g1
g2
(dp5073
g9
I1162501860
sg3106
S'G066'
p5074
stp5075
Rp5076
ag0
(g1
g2
(dp5077
g9
I-19394378
sg3106
S'G059'
p5078
stp5079
Rp5080
aa(lp5081
g0
(g1
g2
(dp5082
g9
I-913877790
sg3106
S'G120'
p5083
stp5084
Rp5085
ag0
(g1
g2
(dp5086
g9
I663303630
sg3106
S'G122'
p5087
stp5088
Rp5089
ag0
(g1
g2
(dp5090
g9
I1351484760
sg3106
S'G123'
p5091
stp5092
Rp5093
ag0
(g1
g2
(dp5094
g9
I-1175609235
sg3106
S'G125'
p5095
stp5096
Rp5097
aasg3248
S'/Heroes/Invisible/_.HROB'
p5098
sg9
I880060159
sg3250
I100
sg3251
I86400
sg3252
S'invisible'
p5099
stp5100
Rp5101
sg2983
g0
(g3104
g2
(dp5102
g3106
g2983
sg3107
I01
sg3108
S'Male'
p5103
sg3110
(dp5104
I-1504100606
I2
sI-1708034167
I1
sI701691402
I4
sI2139640204
I3
sI2093912706
I5
sI-469391089
I1
sI-1948531985
I4
sI-315209953
I2
sI-492173535
I4
sI2074302107
I5
sI-306977500
I3
sI1950291621
I1
sI72737322
I3
sI-1832848466
I5
sI54011443
I1
sI-439893192
I5
sI1382899642
I3
sI1870268347
I1
sI212100621
I5
sI1720934605
I2
sI663303630
I6
sI1420100175
I2
sI-177553838
I4
sI315790165
I4
sI1548840869
I2
sI556178400
I3
sI-913877790
I6
sI1668943341
I1
sI1363963759
I2
sI-1098881932
I6
sI-1934227722
I3
sI-823488261
I6
ssg3112
(lp5105
(lp5106
g0
(g1
g2
(dp5107
g9
I1950291621
sg3106
S'Marine_A1'
p5108
stp5109
Rp5110
ag0
(g1
g2
(dp5111
g9
I-1708034167
sg3106
S'Marine_A3'
p5112
stp5113
Rp5114
ag0
(g1
g2
(dp5115
g9
I1668943341
sg3106
S'G003'
p5116
stp5117
Rp5118
ag0
(g1
g2
(dp5119
g9
I-469391089
sg3106
S'G014'
p5120
stp5121
Rp5122
ag0
(g1
g2
(dp5123
g9
I1870268347
sg3106
S'Gender_M_1'
p5124
stp5125
Rp5126
ag0
(g1
g2
(dp5127
g9
I54011443
sg3106
S'Marine_A0'
p5128
stp5129
Rp5130
aa(lp5131
g0
(g1
g2
(dp5132
g9
I1420100175
sg3106
S'Marine_A1u'
p5133
stp5134
Rp5135
ag0
(g1
g2
(dp5136
g9
I1720934605
sg3106
S'Marine_A3u'
p5137
stp5138
Rp5139
ag0
(g1
g2
(dp5140
g9
I-315209953
sg3106
S'Marine_A2'
p5141
stp5142
Rp5143
ag0
(g1
g2
(dp5144
g9
I1363963759
sg3106
S'G023'
p5145
stp5146
Rp5147
ag0
(g1
g2
(dp5148
g9
I-1504100606
sg3106
S'G031'
p5149
stp5150
Rp5151
ag0
(g1
g2
(dp5152
g9
I1548840869
sg3106
S'G076'
p5153
stp5154
Rp5155
aa(lp5156
g0
(g1
g2
(dp5157
g9
I72737322
sg3106
S'Marine_A4'
p5158
stp5159
Rp5160
ag0
(g1
g2
(dp5161
g9
I1382899642
sg3106
S'G099'
p5162
stp5163
Rp5164
ag0
(g1
g2
(dp5165
g9
I2139640204
sg3106
S'Marine_A2u'
p5166
stp5167
Rp5168
ag0
(g1
g2
(dp5169
g9
I-1934227722
sg3106
S'G101'
p5170
stp5171
Rp5172
ag0
(g1
g2
(dp5173
g9
I556178400
sg3106
S'G026'
p5174
stp5175
Rp5176
ag0
(g1
g2
(dp5177
g9
I-306977500
sg3106
S'G018'
p5178
stp5179
Rp5180
aa(lp5181
g0
(g1
g2
(dp5182
g9
I701691402
sg3106
S'Marine_A4u'
p5183
stp5184
Rp5185
ag0
(g1
g2
(dp5186
g9
I-492173535
sg3106
S'G110'
p5187
stp5188
Rp5189
ag0
(g1
g2
(dp5190
g9
I-177553838
sg3106
S'G108'
p5191
stp5192
Rp5193
ag0
(g1
g2
(dp5194
g9
I-1948531985
sg3106
S'G105'
p5195
stp5196
Rp5197
ag0
(g1
g2
(dp5198
g9
I315790165
sg3106
S'G106'
p5199
stp5200
Rp5201
aa(lp5202
g0
(g1
g2
(dp5203
g9
I-1832848466
sg3106
S'G115'
p5204
stp5205
Rp5206
ag0
(g1
g2
(dp5207
g9
I2093912706
sg3106
S'G117'
p5208
stp5209
Rp5210
ag0
(g1
g2
(dp5211
g9
I212100621
sg3106
S'G112'
p5212
stp5213
Rp5214
ag0
(g1
g2
(dp5215
g9
I2074302107
sg3106
S'G113'
p5216
stp5217
Rp5218
ag0
(g1
g2
(dp5219
g9
I-439893192
sg3106
S'G114'
p5220
stp5221
Rp5222
aa(lp5223
g0
(g1
g2
(dp5224
g9
I-1098881932
sg3106
S'G121'
p5225
stp5226
Rp5227
ag0
(g1
g2
(dp5228
g9
I663303630
sg3106
S'G122'
p5229
stp5230
Rp5231
ag0
(g1
g2
(dp5232
g9
I-823488261
sg3106
S'G124'
p5233
stp5234
Rp5235
ag0
(g1
g2
(dp5236
g9
I-913877790
sg3106
S'G120'
p5237
stp5238
Rp5239
aasg3248
S'/Heroes/Marine/_.HROB'
p5240
sg9
I-512972644
sg3250
I100
sg3251
I86400
sg3252
S'marine'
p5241
stp5242
Rp5243
sg2996
g0
(g3104
g2
(dp5244
g3106
g2996
sg3107
I01
sg3108
S'Male'
p5245
sg3110
(dp5246
I-1504100606
I2
sI1839254923
I2
sI212100621
I5
sI1541084049
I5
sI-328102125
I5
sI197763604
I5
sI-1854824166
I2
sI-953481572
I4
sI447216925
I1
sI-1981865952
I5
sI943565473
I3
sI1548840869
I2
sI-2085704537
I1
sI-205236184
I3
sI627732268
I3
sI-190211023
I1
sI-1699424846
I3
sI1870268347
I1
sI-1244302659
I2
sI1708499907
I4
sI-2106749244
I4
sI-492173535
I4
sI-48326578
I1
sI1351484760
I6
sI-1168313639
I2
sI-2006282149
I3
sI-72272288
I3
sI-913877790
I6
sI-1175609235
I6
sI-1098881932
I6
sI-52628871
I4
sI343752059
I1
ssg3112
(lp5247
(lp5248
g0
(g1
g2
(dp5249
g9
I-2085704537
sg3106
S'Mage_A1'
p5250
stp5251
Rp5252
ag0
(g1
g2
(dp5253
g9
I447216925
sg3106
S'Mage_A2'
p5254
stp5255
Rp5256
ag0
(g1
g2
(dp5257
g9
I343752059
sg3106
S'G002'
p5258
stp5259
Rp5260
ag0
(g1
g2
(dp5261
g9
I-48326578
sg3106
S'G004'
p5262
stp5263
Rp5264
ag0
(g1
g2
(dp5265
g9
I1870268347
sg3106
S'Gender_M_1'
p5266
stp5267
Rp5268
ag0
(g1
g2
(dp5269
g9
I-190211023
sg3106
S'Mage_A0'
p5270
stp5271
Rp5272
aa(lp5273
g0
(g1
g2
(dp5274
g9
I-1168313639
sg3106
S'Mage_A1u'
p5275
stp5276
Rp5277
ag0
(g1
g2
(dp5278
g9
I-1854824166
sg3106
S'Mage_A2u'
p5279
stp5280
Rp5281
ag0
(g1
g2
(dp5282
g9
I1839254923
sg3106
S'Mage_A3'
p5283
stp5284
Rp5285
ag0
(g1
g2
(dp5286
g9
I-1244302659
sg3106
S'G097'
p5287
stp5288
Rp5289
ag0
(g1
g2
(dp5290
g9
I-1504100606
sg3106
S'G031'
p5291
stp5292
Rp5293
ag0
(g1
g2
(dp5294
g9
I1548840869
sg3106
S'G076'
p5295
stp5296
Rp5297
aa(lp5298
g0
(g1
g2
(dp5299
g9
I-205236184
sg3106
S'Mage_A4'
p5300
stp5301
Rp5302
ag0
(g1
g2
(dp5303
g9
I627732268
sg3106
S'G098'
p5304
stp5305
Rp5306
ag0
(g1
g2
(dp5307
g9
I-2006282149
sg3106
S'Mage_A3u'
p5308
stp5309
Rp5310
ag0
(g1
g2
(dp5311
g9
I-72272288
sg3106
S'G100'
p5312
stp5313
Rp5314
ag0
(g1
g2
(dp5315
g9
I943565473
sg3106
S'G036'
p5316
stp5317
Rp5318
ag0
(g1
g2
(dp5319
g9
I-1699424846
sg3106
S'G019'
p5320
stp5321
Rp5322
aa(lp5323
g0
(g1
g2
(dp5324
g9
I-953481572
sg3106
S'Mage_A4u'
p5325
stp5326
Rp5327
ag0
(g1
g2
(dp5328
g9
I-492173535
sg3106
S'G110'
p5329
stp5330
Rp5331
ag0
(g1
g2
(dp5332
g9
I1708499907
sg3106
S'G107'
p5333
stp5334
Rp5335
ag0
(g1
g2
(dp5336
g9
I-52628871
sg3106
S'G104'
p5337
stp5338
Rp5339
ag0
(g1
g2
(dp5340
g9
I-2106749244
sg3106
S'G109'
p5341
stp5342
Rp5343
aa(lp5344
g0
(g1
g2
(dp5345
g9
I212100621
sg3106
S'G112'
p5346
stp5347
Rp5348
ag0
(g1
g2
(dp5349
g9
I197763604
sg3106
S'G116'
p5350
stp5351
Rp5352
ag0
(g1
g2
(dp5353
g9
I-328102125
sg3106
S'G118'
p5354
stp5355
Rp5356
ag0
(g1
g2
(dp5357
g9
I-1981865952
sg3106
S'G058'
p5358
stp5359
Rp5360
ag0
(g1
g2
(dp5361
g9
I1541084049
sg3106
S'G095'
p5362
stp5363
Rp5364
aa(lp5365
g0
(g1
g2
(dp5366
g9
I-1098881932
sg3106
S'G121'
p5367
stp5368
Rp5369
ag0
(g1
g2
(dp5370
g9
I1351484760
sg3106
S'G123'
p5371
stp5372
Rp5373
ag0
(g1
g2
(dp5374
g9
I-1175609235
sg3106
S'G125'
p5375
stp5376
Rp5377
ag0
(g1
g2
(dp5378
g9
I-913877790
sg3106
S'G120'
p5379
stp5380
Rp5381
aasg3248
S'/Heroes/Mage/_.HROB'
p5382
sg9
I-1233569438
sg3250
I100
sg3251
I86400
sg3252
S'mage'
p5383
stp5384
Rp5385
sg2986
g0
(g3104
g2
(dp5386
g3106
g2986
sg3107
I01
sg3108
S'Male'
p5387
sg3110
(dp5388
I2093912706
I5
sI-1624910845
I1
sI-1175609235
I6
sI1927294737
I3
sI1087786387
I2
sI197763604
I5
sI-400366443
I2
sI-492173535
I4
sI168544291
I2
sI1548840869
I2
sI627732268
I3
sI1898689839
I1
sI1984327990
I3
sI-439893192
I5
sI103581113
I1
sI1382899642
I3
sI1870268347
I1
sI-19394378
I5
sI-617690297
I5
sI364861260
I4
sI663303630
I6
sI1811619408
I2
sI-177553838
I4
sI1034009046
I4
sI1351484760
I6
sI1656252378
I4
sI-72272288
I3
sI-823488261
I6
sI1668943341
I1
sI1363963759
I2
sI-1934227722
I3
sI343752059
I1
ssg3112
(lp5389
(lp5390
g0
(g1
g2
(dp5391
g9
I103581113
sg3106
S'Werewolf_A1'
p5392
stp5393
Rp5394
ag0
(g1
g2
(dp5395
g9
I-1624910845
sg3106
S'Werewolf_A2'
p5396
stp5397
Rp5398
ag0
(g1
g2
(dp5399
g9
I343752059
sg3106
S'G002'
p5400
stp5401
Rp5402
ag0
(g1
g2
(dp5403
g9
I1668943341
sg3106
S'G003'
p5404
stp5405
Rp5406
ag0
(g1
g2
(dp5407
g9
I1870268347
sg3106
S'Gender_M_1'
p5408
stp5409
Rp5410
ag0
(g1
g2
(dp5411
g9
I1898689839
sg3106
S'Werewolf_A0'
p5412
stp5413
Rp5414
aa(lp5415
g0
(g1
g2
(dp5416
g9
I1087786387
sg3106
S'Werewolf_A1u'
p5417
stp5418
Rp5419
ag0
(g1
g2
(dp5420
g9
I1811619408
sg3106
S'Werewolf_A2u'
p5421
stp5422
Rp5423
ag0
(g1
g2
(dp5424
g9
I-400366443
sg3106
S'Werewolf_A3'
p5425
stp5426
Rp5427
ag0
(g1
g2
(dp5428
g9
I1363963759
sg3106
S'G023'
p5429
stp5430
Rp5431
ag0
(g1
g2
(dp5432
g9
I168544291
sg3106
S'G016'
p5433
stp5434
Rp5435
ag0
(g1
g2
(dp5436
g9
I1548840869
sg3106
S'G076'
p5437
stp5438
Rp5439
aa(lp5440
g0
(g1
g2
(dp5441
g9
I1984327990
sg3106
S'Werewolf_A4'
p5442
stp5443
Rp5444
ag0
(g1
g2
(dp5445
g9
I1382899642
sg3106
S'G099'
p5446
stp5447
Rp5448
ag0
(g1
g2
(dp5449
g9
I1927294737
sg3106
S'Werewolf_A3u'
p5450
stp5451
Rp5452
ag0
(g1
g2
(dp5453
g9
I627732268
sg3106
S'G098'
p5454
stp5455
Rp5456
ag0
(g1
g2
(dp5457
g9
I-72272288
sg3106
S'G100'
p5458
stp5459
Rp5460
ag0
(g1
g2
(dp5461
g9
I-1934227722
sg3106
S'G101'
p5462
stp5463
Rp5464
aa(lp5465
g0
(g1
g2
(dp5466
g9
I1034009046
sg3106
S'Werewolf_A4u'
p5467
stp5468
Rp5469
ag0
(g1
g2
(dp5470
g9
I-492173535
sg3106
S'G110'
p5471
stp5472
Rp5473
ag0
(g1
g2
(dp5474
g9
I364861260
sg3106
S'G102'
p5475
stp5476
Rp5477
ag0
(g1
g2
(dp5478
g9
I1656252378
sg3106
S'G103'
p5479
stp5480
Rp5481
ag0
(g1
g2
(dp5482
g9
I-177553838
sg3106
S'G108'
p5483
stp5484
Rp5485
aa(lp5486
g0
(g1
g2
(dp5487
g9
I-439893192
sg3106
S'G114'
p5488
stp5489
Rp5490
ag0
(g1
g2
(dp5491
g9
I-617690297
sg3106
S'G061'
p5492
stp5493
Rp5494
ag0
(g1
g2
(dp5495
g9
I197763604
sg3106
S'G116'
p5496
stp5497
Rp5498
ag0
(g1
g2
(dp5499
g9
I2093912706
sg3106
S'G117'
p5500
stp5501
Rp5502
ag0
(g1
g2
(dp5503
g9
I-19394378
sg3106
S'G059'
p5504
stp5505
Rp5506
aa(lp5507
g0
(g1
g2
(dp5508
g9
I663303630
sg3106
S'G122'
p5509
stp5510
Rp5511
ag0
(g1
g2
(dp5512
g9
I1351484760
sg3106
S'G123'
p5513
stp5514
Rp5515
ag0
(g1
g2
(dp5516
g9
I-823488261
sg3106
S'G124'
p5517
stp5518
Rp5519
ag0
(g1
g2
(dp5520
g9
I-1175609235
sg3106
S'G125'
p5521
stp5522
Rp5523
aasg3248
S'/Heroes/Werewolf/_.HROB'
p5524
sg9
I-704936789
sg3250
I100
sg3251
I86400
sg3252
S'werewolf'
p5525
stp5526
Rp5527
sg2978
g0
(g3104
g2
(dp5528
g3106
g2978
sg3107
I01
sg3108
S'Male'
p5529
sg3110
(dp5530
I2093912706
I5
sI2114647300
I4
sI1318491662
I1
sI-469391089
I1
sI-869652204
I2
sI1241207319
I3
sI965846680
I1
sI-1600587998
I2
sI168544291
I2
sI1548840869
I2
sI627732268
I3
sI-1832848466
I5
sI-677394508
I1
sI-439893192
I5
sI1382899642
I3
sI1870268347
I1
sI1708499907
I4
sI-617690297
I5
sI663303630
I6
sI1292624210
I2
sI315790165
I4
sI1351484760
I6
sI-72272288
I3
sI-1866198687
I4
sI-913877790
I6
sI-738021144
I3
sI1668943341
I1
sI197763604
I5
sI1363963759
I2
sI-1098881932
I6
sI-1934227722
I3
sI-177553838
I4
ssg3112
(lp5531
(lp5532
g0
(g1
g2
(dp5533
g9
I965846680
sg3106
S'Mowgli_A1'
p5534
stp5535
Rp5536
ag0
(g1
g2
(dp5537
g9
I-677394508
sg3106
S'Mowgli_A3'
p5538
stp5539
Rp5540
ag0
(g1
g2
(dp5541
g9
I1668943341
sg3106
S'G003'
p5542
stp5543
Rp5544
ag0
(g1
g2
(dp5545
g9
I-469391089
sg3106
S'G014'
p5546
stp5547
Rp5548
ag0
(g1
g2
(dp5549
g9
I1870268347
sg3106
S'Gender_M_1'
p5550
stp5551
Rp5552
ag0
(g1
g2
(dp5553
g9
I1318491662
sg3106
S'Mowgli_A0'
p5554
stp5555
Rp5556
aa(lp5557
g0
(g1
g2
(dp5558
g9
I1292624210
sg3106
S'Mowgli_A1_Upg2'
p5559
stp5560
Rp5561
ag0
(g1
g2
(dp5562
g9
I-869652204
sg3106
S'Mowgli_A3_Upg'
p5563
stp5564
Rp5565
ag0
(g1
g2
(dp5566
g9
I-1600587998
sg3106
S'Mowgli_A2'
p5567
stp5568
Rp5569
ag0
(g1
g2
(dp5570
g9
I168544291
sg3106
S'G016'
p5571
stp5572
Rp5573
ag0
(g1
g2
(dp5574
g9
I1363963759
sg3106
S'G023'
p5575
stp5576
Rp5577
ag0
(g1
g2
(dp5578
g9
I1548840869
sg3106
S'G076'
p5579
stp5580
Rp5581
aa(lp5582
g0
(g1
g2
(dp5583
g9
I-738021144
sg3106
S'Mowgli_A1_Upg1'
p5584
stp5585
Rp5586
ag0
(g1
g2
(dp5587
g9
I1241207319
sg3106
S'Mowgli_A4'
p5588
stp5589
Rp5590
ag0
(g1
g2
(dp5591
g9
I627732268
sg3106
S'G098'
p5592
stp5593
Rp5594
ag0
(g1
g2
(dp5595
g9
I-72272288
sg3106
S'G100'
p5596
stp5597
Rp5598
ag0
(g1
g2
(dp5599
g9
I1382899642
sg3106
S'G099'
p5600
stp5601
Rp5602
ag0
(g1
g2
(dp5603
g9
I-1934227722
sg3106
S'G101'
p5604
stp5605
Rp5606
aa(lp5607
g0
(g1
g2
(dp5608
g9
I-1866198687
sg3106
S'G048'
p5609
stp5610
Rp5611
ag0
(g1
g2
(dp5612
g9
I2114647300
sg3106
S'Mowgli_A4_Upg'
p5613
stp5614
Rp5615
ag0
(g1
g2
(dp5616
g9
I315790165
sg3106
S'G106'
p5617
stp5618
Rp5619
ag0
(g1
g2
(dp5620
g9
I1708499907
sg3106
S'G107'
p5621
stp5622
Rp5623
ag0
(g1
g2
(dp5624
g9
I-177553838
sg3106
S'G108'
p5625
stp5626
Rp5627
aa(lp5628
g0
(g1
g2
(dp5629
g9
I-617690297
sg3106
S'G061'
p5630
stp5631
Rp5632
ag0
(g1
g2
(dp5633
g9
I-439893192
sg3106
S'G114'
p5634
stp5635
Rp5636
ag0
(g1
g2
(dp5637
g9
I197763604
sg3106
S'G116'
p5638
stp5639
Rp5640
ag0
(g1
g2
(dp5641
g9
I2093912706
sg3106
S'G117'
p5642
stp5643
Rp5644
ag0
(g1
g2
(dp5645
g9
I-1832848466
sg3106
S'G115'
p5646
stp5647
Rp5648
aa(lp5649
g0
(g1
g2
(dp5650
g9
I-913877790
sg3106
S'G120'
p5651
stp5652
Rp5653
ag0
(g1
g2
(dp5654
g9
I-1098881932
sg3106
S'G121'
p5655
stp5656
Rp5657
ag0
(g1
g2
(dp5658
g9
I663303630
sg3106
S'G122'
p5659
stp5660
Rp5661
ag0
(g1
g2
(dp5662
g9
I1351484760
sg3106
S'G123'
p5663
stp5664
Rp5665
aasg3248
S'/Heroes/Mowgli/_.HROB'
p5666
sg9
I1160508680
sg3250
I100
sg3251
I86400
sg3252
S'mowgly'
p5667
stp5668
Rp5669
sg2998
g0
(g3104
g2
(dp5670
g3106
g2998
sg3107
I01
sg3108
S'Male'
p5671
sg3110
(dp5672
I2093912706
I5
sI-1175609235
I6
sI197763604
I5
sI-1981865952
I5
sI1548840869
I2
sI2035991847
I2
sI627732268
I3
sI-19394378
I5
sI-439893192
I5
sI1382899642
I3
sI1870268347
I1
sI-72272288
I3
sI1708499907
I4
sI1729729142
I2
sI-32455732
I1
sI-819397940
I2
sI663303630
I6
sI315790165
I4
sI1351484760
I6
sI-1994919078
I1
sI1265412005
I3
sI270443232
I1
sI-1866198687
I4
sI70070626
I4
sI-823488261
I6
sI1383569124
I2
sI1668943341
I1
sI1363963759
I2
sI-1934227722
I3
sI-52628871
I4
sI343752059
I1
sI-109246507
I3
ssg3112
(lp5673
(lp5674
g0
(g1
g2
(dp5675
g9
I-1994919078
sg3106
S'Vedun_A1'
p5676
stp5677
Rp5678
ag0
(g1
g2
(dp5679
g9
I270443232
sg3106
S'Vedun_A2'
p5680
stp5681
Rp5682
ag0
(g1
g2
(dp5683
g9
I343752059
sg3106
S'G002'
p5684
stp5685
Rp5686
ag0
(g1
g2
(dp5687
g9
I1668943341
sg3106
S'G003'
p5688
stp5689
Rp5690
ag0
(g1
g2
(dp5691
g9
I1870268347
sg3106
S'Gender_M_1'
p5692
stp5693
Rp5694
ag0
(g1
g2
(dp5695
g9
I-32455732
sg3106
S'Vedun_A0'
p5696
stp5697
Rp5698
aa(lp5699
g0
(g1
g2
(dp5700
g9
I2035991847
sg3106
S'Vedun_A1u'
p5701
stp5702
Rp5703
ag0
(g1
g2
(dp5704
g9
I1383569124
sg3106
S'Vedun_A2u'
p5705
stp5706
Rp5707
ag0
(g1
g2
(dp5708
g9
I1729729142
sg3106
S'Vedun_A3'
p5709
stp5710
Rp5711
ag0
(g1
g2
(dp5712
g9
I1363963759
sg3106
S'G023'
p5713
stp5714
Rp5715
ag0
(g1
g2
(dp5716
g9
I-819397940
sg3106
S'G024'
p5717
stp5718
Rp5719
ag0
(g1
g2
(dp5720
g9
I1548840869
sg3106
S'G076'
p5721
stp5722
Rp5723
aa(lp5724
g0
(g1
g2
(dp5725
g9
I-109246507
sg3106
S'Vedun_A4'
p5726
stp5727
Rp5728
ag0
(g1
g2
(dp5729
g9
I627732268
sg3106
S'G098'
p5730
stp5731
Rp5732
ag0
(g1
g2
(dp5733
g9
I1265412005
sg3106
S'Vedun_A3u'
p5734
stp5735
Rp5736
ag0
(g1
g2
(dp5737
g9
I1382899642
sg3106
S'G099'
p5738
stp5739
Rp5740
ag0
(g1
g2
(dp5741
g9
I-72272288
sg3106
S'G100'
p5742
stp5743
Rp5744
ag0
(g1
g2
(dp5745
g9
I-1934227722
sg3106
S'G101'
p5746
stp5747
Rp5748
aa(lp5749
g0
(g1
g2
(dp5750
g9
I70070626
sg3106
S'Vedun_A4u'
p5751
stp5752
Rp5753
ag0
(g1
g2
(dp5754
g9
I-1866198687
sg3106
S'G048'
p5755
stp5756
Rp5757
ag0
(g1
g2
(dp5758
g9
I315790165
sg3106
S'G106'
p5759
stp5760
Rp5761
ag0
(g1
g2
(dp5762
g9
I1708499907
sg3106
S'G107'
p5763
stp5764
Rp5765
ag0
(g1
g2
(dp5766
g9
I-52628871
sg3106
S'G104'
p5767
stp5768
Rp5769
aa(lp5770
g0
(g1
g2
(dp5771
g9
I197763604
sg3106
S'G116'
p5772
stp5773
Rp5774
ag0
(g1
g2
(dp5775
g9
I2093912706
sg3106
S'G117'
p5776
stp5777
Rp5778
ag0
(g1
g2
(dp5779
g9
I-439893192
sg3106
S'G114'
p5780
stp5781
Rp5782
ag0
(g1
g2
(dp5783
g9
I-1981865952
sg3106
S'G058'
p5784
stp5785
Rp5786
ag0
(g1
g2
(dp5787
g9
I-19394378
sg3106
S'G059'
p5788
stp5789
Rp5790
aa(lp5791
g0
(g1
g2
(dp5792
g9
I663303630
sg3106
S'G122'
p5793
stp5794
Rp5795
ag0
(g1
g2
(dp5796
g9
I1351484760
sg3106
S'G123'
p5797
stp5798
Rp5799
ag0
(g1
g2
(dp5800
g9
I-823488261
sg3106
S'G124'
p5801
stp5802
Rp5803
ag0
(g1
g2
(dp5804
g9
I-1175609235
sg3106
S'G125'
p5805
stp5806
Rp5807
aasg3248
S'/Heroes/WitchDoctor/_.HROB'
p5808
sg9
I1948040428
sg3250
I100
sg3251
I86400
sg3252
S'witchdoctor'
p5809
stp5810
Rp5811
sg2987
g0
(g3104
g2
(dp5812
g3106
g2987
sg3107
I01
sg3108
S'Male'
p5813
sg3110
(dp5814
I2093912706
I5
sI-1804289517
I3
sI197763604
I5
sI-1037165163
I4
sI1363963759
I2
sI1656252378
I4
sI-492173535
I4
sI168544291
I2
sI1548840869
I2
sI1852247335
I5
sI627732268
I3
sI-439893192
I5
sI1382899642
I3
sI1870268347
I1
sI-72272288
I3
sI-1086190013
I2
sI1760352076
I1
sI364861260
I4
sI663303630
I6
sI-1084626480
I2
sI-177553838
I4
sI1351484760
I6
sI535554010
I2
sI-2031962528
I1
sI-913877790
I6
sI-190262171
I1
sI1668943341
I1
sI-158842129
I3
sI-236615946
I1
sI-2121305479
I3
sI-823488261
I6
sI1109891837
I5
ssg3112
(lp5815
(lp5816
g0
(g1
g2
(dp5817
g9
I-2031962528
sg3106
S'GhostLord_A1'
p5818
stp5819
Rp5820
ag0
(g1
g2
(dp5821
g9
I1760352076
sg3106
S'GhostLord_A3'
p5822
stp5823
Rp5824
ag0
(g1
g2
(dp5825
g9
I1668943341
sg3106
S'G003'
p5826
stp5827
Rp5828
ag0
(g1
g2
(dp5829
g9
I-190262171
sg3106
S'G008'
p5830
stp5831
Rp5832
ag0
(g1
g2
(dp5833
g9
I1870268347
sg3106
S'Gender_M_1'
p5834
stp5835
Rp5836
ag0
(g1
g2
(dp5837
g9
I-236615946
sg3106
S'GhostLord_A0'
p5838
stp5839
Rp5840
aa(lp5841
g0
(g1
g2
(dp5842
g9
I-1084626480
sg3106
S'GhostLord_A1u'
p5843
stp5844
Rp5845
ag0
(g1
g2
(dp5846
g9
I535554010
sg3106
S'GhostLord_A2'
p5847
stp5848
Rp5849
ag0
(g1
g2
(dp5850
g9
I-1086190013
sg3106
S'G021'
p5851
stp5852
Rp5853
ag0
(g1
g2
(dp5854
g9
I1363963759
sg3106
S'G023'
p5855
stp5856
Rp5857
ag0
(g1
g2
(dp5858
g9
I168544291
sg3106
S'G016'
p5859
stp5860
Rp5861
ag0
(g1
g2
(dp5862
g9
I1548840869
sg3106
S'G076'
p5863
stp5864
Rp5865
aa(lp5866
g0
(g1
g2
(dp5867
g9
I-158842129
sg3106
S'GhostLord_A4'
p5868
stp5869
Rp5870
ag0
(g1
g2
(dp5871
g9
I-1804289517
sg3106
S'GhostLord_A2u'
p5872
stp5873
Rp5874
ag0
(g1
g2
(dp5875
g9
I-2121305479
sg3106
S'GhostLord_A5'
p5876
stp5877
Rp5878
ag0
(g1
g2
(dp5879
g9
I627732268
sg3106
S'G098'
p5880
stp5881
Rp5882
ag0
(g1
g2
(dp5883
g9
I-72272288
sg3106
S'G100'
p5884
stp5885
Rp5886
ag0
(g1
g2
(dp5887
g9
I1382899642
sg3106
S'G099'
p5888
stp5889
Rp5890
aa(lp5891
g0
(g1
g2
(dp5892
g9
I-1037165163
sg3106
S'GhostLord_A4u'
p5893
stp5894
Rp5895
ag0
(g1
g2
(dp5896
g9
I-492173535
sg3106
S'G110'
p5897
stp5898
Rp5899
ag0
(g1
g2
(dp5900
g9
I1656252378
sg3106
S'G103'
p5901
stp5902
Rp5903
ag0
(g1
g2
(dp5904
g9
I364861260
sg3106
S'G102'
p5905
stp5906
Rp5907
ag0
(g1
g2
(dp5908
g9
I-177553838
sg3106
S'G108'
p5909
stp5910
Rp5911
aa(lp5912
g0
(g1
g2
(dp5913
g9
I-439893192
sg3106
S'G114'
p5914
stp5915
Rp5916
ag0
(g1
g2
(dp5917
g9
I197763604
sg3106
S'G116'
p5918
stp5919
Rp5920
ag0
(g1
g2
(dp5921
g9
I2093912706
sg3106
S'G117'
p5922
stp5923
Rp5924
ag0
(g1
g2
(dp5925
g9
I1852247335
sg3106
S'G056'
p5926
stp5927
Rp5928
ag0
(g1
g2
(dp5929
g9
I1109891837
sg3106
S'G062'
p5930
stp5931
Rp5932
aa(lp5933
g0
(g1
g2
(dp5934
g9
I-913877790
sg3106
S'G120'
p5935
stp5936
Rp5937
ag0
(g1
g2
(dp5938
g9
I663303630
sg3106
S'G122'
p5939
stp5940
Rp5941
ag0
(g1
g2
(dp5942
g9
I1351484760
sg3106
S'G123'
p5943
stp5944
Rp5945
ag0
(g1
g2
(dp5946
g9
I-823488261
sg3106
S'G124'
p5947
stp5948
Rp5949
aasg3248
S'/Heroes/GhostLord/_.HROB'
p5950
sg9
I1152531506
sg3250
I100
sg3251
I86400
sg3252
S'ghostlord'
p5951
stp5952
Rp5953
sg2999
g0
(g3104
g2
(dp5954
g3106
g2999
sg3107
I01
sg3108
S'Male'
p5955
sg3110
(dp5956
I-1504100606
I2
sI1555486600
I3
sI212100621
I5
sI-245627505
I2
sI-328102125
I5
sI197763604
I5
sI2074302107
I5
sI-492173535
I4
sI943565473
I3
sI1548840869
I2
sI627732268
I3
sI-1832848466
I5
sI-1783810121
I4
sI1870268347
I1
sI1708499907
I4
sI1909264839
I2
sI881833037
I3
sI-48326578
I1
sI113910097
I1
sI1351484760
I6
sI-72272288
I3
sI-913877790
I6
sI-274103196
I3
sI-1614581525
I1
sI-1175609235
I6
sI1363963759
I2
sI-1098881932
I6
sI-1383668233
I2
sI-52628871
I4
sI343752059
I1
sI-389791619
I1
sI968657663
I4
ssg3112
(lp5957
(lp5958
g0
(g1
g2
(dp5959
g9
I-1614581525
sg3106
S'ManaWyrm_A1'
p5960
stp5961
Rp5962
ag0
(g1
g2
(dp5963
g9
I113910097
sg3106
S'ManaWyrm_A2'
p5964
stp5965
Rp5966
ag0
(g1
g2
(dp5967
g9
I-48326578
sg3106
S'G004'
p5968
stp5969
Rp5970
ag0
(g1
g2
(dp5971
g9
I343752059
sg3106
S'G002'
p5972
stp5973
Rp5974
ag0
(g1
g2
(dp5975
g9
I1870268347
sg3106
S'Gender_M_1'
p5976
stp5977
Rp5978
ag0
(g1
g2
(dp5979
g9
I-389791619
sg3106
S'ManaWyrm_A0'
p5980
stp5981
Rp5982
aa(lp5983
g0
(g1
g2
(dp5984
g9
I-245627505
sg3106
S'ManaWyrm_A1_Upg'
p5985
stp5986
Rp5987
ag0
(g1
g2
(dp5988
g9
I-1383668233
sg3106
S'ManaWyrm_A2u1'
p5989
stp5990
Rp5991
ag0
(g1
g2
(dp5992
g9
I1909264839
sg3106
S'ManaWyrm_A3'
p5993
stp5994
Rp5995
ag0
(g1
g2
(dp5996
g9
I1363963759
sg3106
S'G023'
p5997
stp5998
Rp5999
ag0
(g1
g2
(dp6000
g9
I-1504100606
sg3106
S'G031'
p6001
stp6002
Rp6003
ag0
(g1
g2
(dp6004
g9
I1548840869
sg3106
S'G076'
p6005
stp6006
Rp6007
aa(lp6008
g0
(g1
g2
(dp6009
g9
I-274103196
sg3106
S'ManaWyrm_A4'
p6010
stp6011
Rp6012
ag0
(g1
g2
(dp6013
g9
I881833037
sg3106
S'ManaWyrm_A2u2'
p6014
stp6015
Rp6016
ag0
(g1
g2
(dp6017
g9
I627732268
sg3106
S'G098'
p6018
stp6019
Rp6020
ag0
(g1
g2
(dp6021
g9
I943565473
sg3106
S'G036'
p6022
stp6023
Rp6024
ag0
(g1
g2
(dp6025
g9
I1555486600
sg3106
S'G091'
p6026
stp6027
Rp6028
ag0
(g1
g2
(dp6029
g9
I-72272288
sg3106
S'G100'
p6030
stp6031
Rp6032
aa(lp6033
g0
(g1
g2
(dp6034
g9
I968657663
sg3106
S'ManaWyrm_A4_Upg'
p6035
stp6036
Rp6037
ag0
(g1
g2
(dp6038
g9
I-492173535
sg3106
S'G110'
p6039
stp6040
Rp6041
ag0
(g1
g2
(dp6042
g9
I1708499907
sg3106
S'G107'
p6043
stp6044
Rp6045
ag0
(g1
g2
(dp6046
g9
I-52628871
sg3106
S'G104'
p6047
stp6048
Rp6049
ag0
(g1
g2
(dp6050
g9
I-1783810121
sg3106
S'G111'
p6051
stp6052
Rp6053
aa(lp6054
g0
(g1
g2
(dp6055
g9
I197763604
sg3106
S'G116'
p6056
stp6057
Rp6058
ag0
(g1
g2
(dp6059
g9
I-328102125
sg3106
S'G118'
p6060
stp6061
Rp6062
ag0
(g1
g2
(dp6063
g9
I-1832848466
sg3106
S'G115'
p6064
stp6065
Rp6066
ag0
(g1
g2
(dp6067
g9
I212100621
sg3106
S'G112'
p6068
stp6069
Rp6070
ag0
(g1
g2
(dp6071
g9
I2074302107
sg3106
S'G113'
p6072
stp6073
Rp6074
aa(lp6075
g0
(g1
g2
(dp6076
g9
I-1175609235
sg3106
S'G125'
p6077
stp6078
Rp6079
ag0
(g1
g2
(dp6080
g9
I1351484760
sg3106
S'G123'
p6081
stp6082
Rp6083
ag0
(g1
g2
(dp6084
g9
I-1098881932
sg3106
S'G121'
p6085
stp6086
Rp6087
ag0
(g1
g2
(dp6088
g9
I-913877790
sg3106
S'G120'
p6089
stp6090
Rp6091
aasg3248
S'/Heroes/ManaWyrm/_.HROB'
p6092
sg9
I375640302
sg3250
I100
sg3251
I86400
sg3252
S'manawyrm'
p6093
stp6094
Rp6095
sg2981
g0
(g3104
g2
(dp6096
g3106
g2981
sg3107
I01
sg3108
S'Female'
p6097
sg3110
(dp6098
I2093912706
I5
sI-1686716539
I5
sI197763604
I5
sI-492173535
I4
sI1548840869
I2
sI627732268
I3
sI-1832848466
I5
sI-439893192
I5
sI-1238309063
I2
sI1382899642
I3
sI-529907521
I4
sI-1213328064
I1
sI-1921749823
I1
sI-819397940
I2
sI364861260
I4
sI663303630
I6
sI-1062656554
I1
sI1351484760
I6
sI-1329344167
I3
sI1664084058
I1
sI-1658997510
I2
sI-72272288
I3
sI-913877790
I6
sI1503687788
I1
sI1668943341
I1
sI-1948531985
I4
sI-1098881932
I6
sI-1934227722
I3
sI-1356081544
I3
sI-52628871
I4
sI782714106
I2
sI-1395768324
I2
ssg3112
(lp6099
(lp6100
g0
(g1
g2
(dp6101
g9
I-1062656554
sg3106
S'Night_A1'
p6102
stp6103
Rp6104
ag0
(g1
g2
(dp6105
g9
I1503687788
sg3106
S'Night_A2'
p6106
stp6107
Rp6108
ag0
(g1
g2
(dp6109
g9
I1668943341
sg3106
S'G003'
p6110
stp6111
Rp6112
ag0
(g1
g2
(dp6113
g9
I-1921749823
sg3106
S'G001'
p6114
stp6115
Rp6116
ag0
(g1
g2
(dp6117
g9
I1664084058
sg3106
S'Gender_F_1'
p6118
stp6119
Rp6120
ag0
(g1
g2
(dp6121
g9
I-1213328064
sg3106
S'Night_A0'
p6122
stp6123
Rp6124
aa(lp6125
g0
(g1
g2
(dp6126
g9
I-1658997510
sg3106
S'Night_A1u'
p6127
stp6128
Rp6129
ag0
(g1
g2
(dp6130
g9
I-1238309063
sg3106
S'Night_A2u'
p6131
stp6132
Rp6133
ag0
(g1
g2
(dp6134
g9
I782714106
sg3106
S'Night_A3'
p6135
stp6136
Rp6137
ag0
(g1
g2
(dp6138
g9
I-819397940
sg3106
S'G024'
p6139
stp6140
Rp6141
ag0
(g1
g2
(dp6142
g9
I-1395768324
sg3106
S'G087'
p6143
stp6144
Rp6145
ag0
(g1
g2
(dp6146
g9
I1548840869
sg3106
S'G076'
p6147
stp6148
Rp6149
aa(lp6150
g0
(g1
g2
(dp6151
g9
I-1329344167
sg3106
S'Night_A4'
p6152
stp6153
Rp6154
ag0
(g1
g2
(dp6155
g9
I1382899642
sg3106
S'G099'
p6156
stp6157
Rp6158
ag0
(g1
g2
(dp6159
g9
I-1356081544
sg3106
S'Night_A3u'
p6160
stp6161
Rp6162
ag0
(g1
g2
(dp6163
g9
I627732268
sg3106
S'G098'
p6164
stp6165
Rp6166
ag0
(g1
g2
(dp6167
g9
I-1934227722
sg3106
S'G101'
p6168
stp6169
Rp6170
ag0
(g1
g2
(dp6171
g9
I-72272288
sg3106
S'G100'
p6172
stp6173
Rp6174
aa(lp6175
g0
(g1
g2
(dp6176
g9
I-529907521
sg3106
S'Night_A4u'
p6177
stp6178
Rp6179
ag0
(g1
g2
(dp6180
g9
I-492173535
sg3106
S'G110'
p6181
stp6182
Rp6183
ag0
(g1
g2
(dp6184
g9
I364861260
sg3106
S'G102'
p6185
stp6186
Rp6187
ag0
(g1
g2
(dp6188
g9
I-1948531985
sg3106
S'G105'
p6189
stp6190
Rp6191
ag0
(g1
g2
(dp6192
g9
I-52628871
sg3106
S'G104'
p6193
stp6194
Rp6195
aa(lp6196
g0
(g1
g2
(dp6197
g9
I197763604
sg3106
S'G116'
p6198
stp6199
Rp6200
ag0
(g1
g2
(dp6201
g9
I2093912706
sg3106
S'G117'
p6202
stp6203
Rp6204
ag0
(g1
g2
(dp6205
g9
I-439893192
sg3106
S'G114'
p6206
stp6207
Rp6208
ag0
(g1
g2
(dp6209
g9
I-1832848466
sg3106
S'G115'
p6210
stp6211
Rp6212
ag0
(g1
g2
(dp6213
g9
I-1686716539
sg3106
S'G119'
p6214
stp6215
Rp6216
aa(lp6217
g0
(g1
g2
(dp6218
g9
I-1098881932
sg3106
S'G121'
p6219
stp6220
Rp6221
ag0
(g1
g2
(dp6222
g9
I-913877790
sg3106
S'G120'
p6223
stp6224
Rp6225
ag0
(g1
g2
(dp6226
g9
I663303630
sg3106
S'G122'
p6227
stp6228
Rp6229
ag0
(g1
g2
(dp6230
g9
I1351484760
sg3106
S'G123'
p6231
stp6232
Rp6233
aasg3248
S'/Heroes/Night/_.HROB'
p6234
sg9
I299503511
sg3250
I100
sg3251
I86400
sg3252
S'night'
p6235
stp6236
Rp6237
sg2984
g0
(g3104
g2
(dp6238
g3106
g2984
sg3107
I01
sg3108
S'Male'
p6239
sg3110
(dp6240
I-1804640896
I1
sI2093912706
I5
sI555839877
I3
sI320279303
I2
sI212100621
I5
sI197763604
I5
sI-1828546151
I1
sI-1948531985
I4
sI2074302107
I5
sI1548840869
I2
sI627732268
I3
sI-1832848466
I5
sI1329240631
I2
sI1382899642
I3
sI1870268347
I1
sI1708499907
I4
sI76273092
I3
sI1960911179
I1
sI364861260
I4
sI663303630
I6
sI1119888080
I4
sI1351484760
I6
sI65409501
I1
sI535679838
I2
sI-1866198687
I4
sI-913877790
I6
sI-2031844636
I3
sI-1695596441
I2
sI1363963759
I2
sI-303533839
I1
sI-1934227722
I3
sI-823488261
I6
ssg3112
(lp6241
(lp6242
g0
(g1
g2
(dp6243
g9
I1960911179
sg3106
S'Assassin_A1'
p6244
stp6245
Rp6246
ag0
(g1
g2
(dp6247
g9
I-303533839
sg3106
S'Assassin_A2'
p6248
stp6249
Rp6250
ag0
(g1
g2
(dp6251
g9
I-1804640896
sg3106
S'G011'
p6252
stp6253
Rp6254
ag0
(g1
g2
(dp6255
g9
I-1828546151
sg3106
S'G015'
p6256
stp6257
Rp6258
ag0
(g1
g2
(dp6259
g9
I1870268347
sg3106
S'Gender_M_1'
p6260
stp6261
Rp6262
ag0
(g1
g2
(dp6263
g9
I65409501
sg3106
S'Assassin_A0'
p6264
stp6265
Rp6266
aa(lp6267
g0
(g1
g2
(dp6268
g9
I320279303
sg3106
S'Assassin_A1u'
p6269
stp6270
Rp6271
ag0
(g1
g2
(dp6272
g9
I535679838
sg3106
S'Assassin_A2u1'
p6273
stp6274
Rp6275
ag0
(g1
g2
(dp6276
g9
I-1695596441
sg3106
S'Assassin_A3'
p6277
stp6278
Rp6279
ag0
(g1
g2
(dp6280
g9
I1363963759
sg3106
S'G023'
p6281
stp6282
Rp6283
ag0
(g1
g2
(dp6284
g9
I1329240631
sg3106
S'G037'
p6285
stp6286
Rp6287
ag0
(g1
g2
(dp6288
g9
I1548840869
sg3106
S'G076'
p6289
stp6290
Rp6291
aa(lp6292
g0
(g1
g2
(dp6293
g9
I76273092
sg3106
S'Assassin_A4'
p6294
stp6295
Rp6296
ag0
(g1
g2
(dp6297
g9
I-2031844636
sg3106
S'Assassin_A2u2'
p6298
stp6299
Rp6300
ag0
(g1
g2
(dp6301
g9
I555839877
sg3106
S'Assassin_A3u'
p6302
stp6303
Rp6304
ag0
(g1
g2
(dp6305
g9
I1382899642
sg3106
S'G099'
p6306
stp6307
Rp6308
ag0
(g1
g2
(dp6309
g9
I627732268
sg3106
S'G098'
p6310
stp6311
Rp6312
ag0
(g1
g2
(dp6313
g9
I-1934227722
sg3106
S'G101'
p6314
stp6315
Rp6316
aa(lp6317
g0
(g1
g2
(dp6318
g9
I-1866198687
sg3106
S'G048'
p6319
stp6320
Rp6321
ag0
(g1
g2
(dp6322
g9
I1119888080
sg3106
S'G085'
p6323
stp6324
Rp6325
ag0
(g1
g2
(dp6326
g9
I364861260
sg3106
S'G102'
p6327
stp6328
Rp6329
ag0
(g1
g2
(dp6330
g9
I1708499907
sg3106
S'G107'
p6331
stp6332
Rp6333
ag0
(g1
g2
(dp6334
g9
I-1948531985
sg3106
S'G105'
p6335
stp6336
Rp6337
aa(lp6338
g0
(g1
g2
(dp6339
g9
I2093912706
sg3106
S'G117'
p6340
stp6341
Rp6342
ag0
(g1
g2
(dp6343
g9
I-1832848466
sg3106
S'G115'
p6344
stp6345
Rp6346
ag0
(g1
g2
(dp6347
g9
I197763604
sg3106
S'G116'
p6348
stp6349
Rp6350
ag0
(g1
g2
(dp6351
g9
I2074302107
sg3106
S'G113'
p6352
stp6353
Rp6354
ag0
(g1
g2
(dp6355
g9
I212100621
sg3106
S'G112'
p6356
stp6357
Rp6358
aa(lp6359
g0
(g1
g2
(dp6360
g9
I-913877790
sg3106
S'G120'
p6361
stp6362
Rp6363
ag0
(g1
g2
(dp6364
g9
I663303630
sg3106
S'G122'
p6365
stp6366
Rp6367
ag0
(g1
g2
(dp6368
g9
I1351484760
sg3106
S'G123'
p6369
stp6370
Rp6371
ag0
(g1
g2
(dp6372
g9
I-823488261
sg3106
S'G124'
p6373
stp6374
Rp6375
aasg3248
S'/Heroes/Assassin/_.HROB'
p6376
sg9
I-1139813982
sg3250
I100
sg3251
I86400
sg3252
S'assassin'
p6377
stp6378
Rp6379
sg2982
g0
(g3104
g2
(dp6380
g3106
g2982
sg3107
I01
sg3108
S'Male'
p6381
sg3110
(dp6382
I-1504100606
I2
sI2093912706
I5
sI1351484760
I6
sI-1832848466
I5
sI2074302107
I5
sI733079326
I4
sI-492173535
I4
sI-306977500
I3
sI1548840869
I2
sI632889384
I2
sI1944291246
I4
sI-439893192
I5
sI1382899642
I3
sI1870268347
I1
sI364861260
I4
sI932616653
I1
sI663303630
I6
sI212100621
I5
sI821779924
I3
sI315790165
I4
sI-1978029864
I1
sI1083287899
I1
sI-644286239
I1
sI319879522
I3
sI1017254249
I3
sI244610027
I2
sI1668943341
I1
sI1363963759
I2
sI-1098881932
I6
sI-1934227722
I3
sI-1365260169
I2
sI-823488261
I6
ssg3112
(lp6383
(lp6384
g0
(g1
g2
(dp6385
g9
I1083287899
sg3106
S'Warlord_A1'
p6386
stp6387
Rp6388
ag0
(g1
g2
(dp6389
g9
I-644286239
sg3106
S'Warlord_A2'
p6390
stp6391
Rp6392
ag0
(g1
g2
(dp6393
g9
I1668943341
sg3106
S'G003'
p6394
stp6395
Rp6396
ag0
(g1
g2
(dp6397
g9
I-1978029864
sg3106
S'G005'
p6398
stp6399
Rp6400
ag0
(g1
g2
(dp6401
g9
I1870268347
sg3106
S'Gender_M_1'
p6402
stp6403
Rp6404
ag0
(g1
g2
(dp6405
g9
I932616653
sg3106
S'Warlord_A0'
p6406
stp6407
Rp6408
aa(lp6409
g0
(g1
g2
(dp6410
g9
I244610027
sg3106
S'Warlord_A1u'
p6411
stp6412
Rp6413
ag0
(g1
g2
(dp6414
g9
I632889384
sg3106
S'Warlord_A2u'
p6415
stp6416
Rp6417
ag0
(g1
g2
(dp6418
g9
I-1365260169
sg3106
S'Warlord_A3'
p6419
stp6420
Rp6421
ag0
(g1
g2
(dp6422
g9
I1363963759
sg3106
S'G023'
p6423
stp6424
Rp6425
ag0
(g1
g2
(dp6426
g9
I-1504100606
sg3106
S'G031'
p6427
stp6428
Rp6429
ag0
(g1
g2
(dp6430
g9
I1548840869
sg3106
S'G076'
p6431
stp6432
Rp6433
aa(lp6434
g0
(g1
g2
(dp6435
g9
I821779924
sg3106
S'Warlord_A4'
p6436
stp6437
Rp6438
ag0
(g1
g2
(dp6439
g9
I1382899642
sg3106
S'G099'
p6440
stp6441
Rp6442
ag0
(g1
g2
(dp6443
g9
I1017254249
sg3106
S'Warlord_A3u'
p6444
stp6445
Rp6446
ag0
(g1
g2
(dp6447
g9
I-1934227722
sg3106
S'G101'
p6448
stp6449
Rp6450
ag0
(g1
g2
(dp6451
g9
I-306977500
sg3106
S'G018'
p6452
stp6453
Rp6454
ag0
(g1
g2
(dp6455
g9
I319879522
sg3106
S'G006'
p6456
stp6457
Rp6458
aa(lp6459
g0
(g1
g2
(dp6460
g9
I1944291246
sg3106
S'Warlord_A4u'
p6461
stp6462
Rp6463
ag0
(g1
g2
(dp6464
g9
I-492173535
sg3106
S'G110'
p6465
stp6466
Rp6467
ag0
(g1
g2
(dp6468
g9
I364861260
sg3106
S'G102'
p6469
stp6470
Rp6471
ag0
(g1
g2
(dp6472
g9
I315790165
sg3106
S'G106'
p6473
stp6474
Rp6475
ag0
(g1
g2
(dp6476
g9
I733079326
sg3106
S'G090'
p6477
stp6478
Rp6479
aa(lp6480
g0
(g1
g2
(dp6481
g9
I2074302107
sg3106
S'G113'
p6482
stp6483
Rp6484
ag0
(g1
g2
(dp6485
g9
I2093912706
sg3106
S'G117'
p6486
stp6487
Rp6488
ag0
(g1
g2
(dp6489
g9
I212100621
sg3106
S'G112'
p6490
stp6491
Rp6492
ag0
(g1
g2
(dp6493
g9
I-439893192
sg3106
S'G114'
p6494
stp6495
Rp6496
ag0
(g1
g2
(dp6497
g9
I-1832848466
sg3106
S'G115'
p6498
stp6499
Rp6500
aa(lp6501
g0
(g1
g2
(dp6502
g9
I-1098881932
sg3106
S'G121'
p6503
stp6504
Rp6505
ag0
(g1
g2
(dp6506
g9
I663303630
sg3106
S'G122'
p6507
stp6508
Rp6509
ag0
(g1
g2
(dp6510
g9
I-823488261
sg3106
S'G124'
p6511
stp6512
Rp6513
ag0
(g1
g2
(dp6514
g9
I1351484760
sg3106
S'G123'
p6515
stp6516
Rp6517
aasg3248
S'/Heroes/Warlord/_.HROB'
p6518
sg9
I-1850465256
sg3250
I100
sg3251
I86400
sg3252
S'warlord'
p6519
stp6520
Rp6521
ssS'HERO_TALENTS'
p6522
(dp6523
S'ANY_HERO'
p6524
(dp6525
S'_TALENT_ROWS'
p6526
(dp6527
I-1624910845
I0
sI1855188484
I0
sI-1292258811
I0
sI-1036649978
I5
sI-1832848466
I5
sI-2140574709
I4
sI-1188794867
I0
sI197763604
I5
sI1936177685
I0
sI1241207319
I0
sI-1856083939
I0
sI-984072673
I4
sI-1981865952
I5
sI168544291
I2
sI425737649
I5
sI-205236184
I0
sI72737322
I0
sI-1026407893
I4
sI-1333207504
I0
sI-977304014
I5
sI-856788428
I4
sI1329240631
I2
sI224791610
I1
sI-752205759
I0
sI-1086190013
I2
sI902238790
I4
sI1986912328
I0
sI-1554524087
I0
sI-48326578
I1
sI212100621
I5
sI-177553838
I4
sI-1708055466
I0
sI1201453658
I0
sI850056799
I4
sI-2031962528
I0
sI-61607325
I0
sI-274103196
I0
sI-190262171
I1
sI-1695596441
I0
sI-987430808
I0
sI-839423381
I0
sI1503687788
I0
sI1014062701
I2
sI-1315338639
I2
sI843935346
I5
sI-328102125
I5
sI-1098881932
I6
sI1729729142
I0
sI-1365260169
I0
sI-823488261
I6
sI-52628871
I4
sI1880225919
I3
sI2093912706
I5
sI891333227
I5
sI-268199804
I4
sI-1302393207
I3
sI-1030535542
I0
sI519641739
I0
sI-1175609235
I6
sI-1254962544
I6
sI-400366443
I0
sI965846680
I0
sI51203738
I0
sI-836542821
I0
sI943565473
I3
sI-1142340958
I5
sI1109434019
I0
sI-1296517468
I5
sI1950291621
I0
sI-946868570
I0
sI-2085704537
I0
sI-1023676729
I0
sI2053192876
I2
sI-1421590584
I5
sI-19394378
I5
sI1169024713
I4
sI1062235832
I3
sI-1244302659
I2
sI-705346699
I6
sI-1921749823
I1
sI-2106749244
I4
sI-1449993354
I0
sI-750965562
I0
sI101127367
I0
sI-819397940
I2
sI-1027479348
I0
sI1119888080
I4
sI-934986027
I5
sI-1540525865
I0
sI-1978029864
I1
sI-363081511
I0
sI-1921010465
I0
sI270443232
I0
sI-644286239
I0
sI-913877790
I6
sI-1204827558
I4
sI-962677017
I2
sI320545148
I0
sI-1614581525
I0
sI-158842129
I0
sI-303533839
I0
sI-2085624589
I3
sI-1957379339
I0
sI-1934227722
I3
sI-72272288
I3
sI782714106
I0
sI1266052859
I3
sI-1158653187
I0
sI-1306382082
I0
sI-599520512
I0
sI-1504100606
I2
sI752624391
I5
sI-469391089
I1
sI-492173535
I4
sI-1415346203
I4
sI1585889052
I0
sI447216925
I0
sI733079326
I4
sI-315209953
I0
sI1462374177
I0
sI-306977500
I3
sI1852247335
I5
sI2017316136
I0
sI742103850
I6
sI627732268
I3
sI1536825136
I0
sI-2014295247
I0
sI727080755
I5
sI1445047158
I2
sI1984327990
I0
sI-439893192
I5
sI556178400
I3
sI603523911
I0
sI-1720558262
I4
sI1960911179
I0
sI364861260
I4
sI113910097
I0
sI-1642096301
I3
sI315790165
I4
sI355489622
I0
sI1351484760
I6
sI-1329344167
I0
sI-1994919078
I0
sI1083287899
I0
sI742827357
I0
sI-599584930
I6
sI-1467828432
I3
sI-1866198687
I4
sI319879522
I3
sI-607554710
I4
sI1025778029
I0
sI1363963759
I2
sI-593184909
I4
sI-252216409
I0
sI1539881334
I0
sI118933737
I4
sI1950303610
I0
sI343752059
I1
sI1244953980
I0
sI-1626454659
I0
sI-1804640896
I1
sI754290667
I0
sI-1686716539
I5
sI1555486600
I3
sI-1708034167
I0
sI696356746
I0
sI1839254923
I0
sI-1406206065
I0
sI1541084049
I5
sI-782364780
I2
sI-1828546151
I1
sI-1948531985
I4
sI2074302107
I5
sI1542635389
I0
sI748496806
I0
sI139934119
I0
sI504232360
I5
sI-617690297
I5
sI658570158
I0
sI-1299113400
I0
sI-1699424846
I3
sI-677394508
I0
sI1162501860
I5
sI-318558282
I0
sI-1783810121
I4
sI103581113
I0
sI1382899642
I3
sI1870268347
I1
sI1530702780
I6
sI1708499907
I4
sI1402208200
I0
sI663303630
I6
sI-1406534703
I4
sI1546408402
I0
sI821779924
I0
sI-109246507
I0
sI-1062656554
I0
sI642473977
I4
sI1700439001
I0
sI535554010
I0
sI1548840869
I2
sI-560600096
I0
sI1297012194
I0
sI-1561168925
I6
sI-544897114
I3
sI1026772458
I0
sI-402033173
I0
sI1668943341
I1
sI1109891837
I5
sI1668404723
I0
sI-406642185
I4
sI732057081
I0
sI1664084058
I1
sI-1395768324
I2
sI1656252378
I4
sssS'firefox'
p6528
(dp6529
g6526
(dp6530
I-1711005920
I4
sI1013220353
I3
sI-174046200
I3
sI1946844684
I1
sI1823020466
I2
sI1936177685
I2
sI-318558282
I1
sI560051385
I2
sI51203738
I1
sssS'_IS_TALENT_PREREQ_FOR'
p6531
(dp6532
I-1624910845
(dp6533
I1811619408
I1
ssI1855188484
(dp6534
I-120824123
I1
ssI-1292258811
(dp6535
I-2045686699
I1
ssI-1188794867
(dp6536
I-675121721
I1
ssI1936177685
(dp6537
I1013220353
I1
ssI1241207319
(dp6538
I2114647300
I1
ssI-1856083939
(dp6539
I1732500196
I1
sI-28669090
I1
ssI-205236184
(dp6540
I-953481572
I1
ssI72737322
(dp6541
I701691402
I1
ssI-1333207504
(dp6542
I1701558116
I1
ssI-752205759
(dp6543
I-571378808
I1
ssI1986912328
(dp6544
I-1161576401
I1
ssI-1554524087
(dp6545
I-82318528
I1
ssI-1708055466
(dp6546
I-1834149052
I1
ssI1201453658
(dp6547
I-1331272164
I1
sI699348902
I1
ssI-2031962528
(dp6548
I-1084626480
I1
ssI-61607325
(dp6549
I640289070
I1
ssI-274103196
(dp6550
I968657663
I1
ssI-1695596441
(dp6551
I555839877
I1
ssI-987430808
(dp6552
I-1312709036
I1
ssI-839423381
(dp6553
I683681156
I1
ssI1503687788
(dp6554
I-1238309063
I1
ssI1729729142
(dp6555
I1265412005
I1
ssI-1365260169
(dp6556
I1017254249
I1
ssI-1030535542
(dp6557
I-4025530
I1
ssI519641739
(dp6558
I808243637
I1
ssI-400366443
(dp6559
I1927294737
I1
ssI965846680
(dp6560
I-738021144
I1
sI1292624210
I1
ssI51203738
(dp6561
I-174046200
I1
sI1823020466
I1
ssI-836542821
(dp6562
I-358458249
I1
ssI1109434019
(dp6563
I-1108297486
I1
ssI1950291621
(dp6564
I1420100175
I1
ssI-946868570
(dp6565
I-853548275
I1
ssI-2085704537
(dp6566
I-1168313639
I1
ssI-1023676729
(dp6567
I-139475261
I1
ssI-1449993354
(dp6568
I1268919532
I1
ssI-750965562
(dp6569
I-513461300
I2
ssI101127367
(dp6570
I2021294237
I1
sI-512503513
I1
ssI-1027479348
(dp6571
I1618814285
I1
ssI-1540525865
(dp6572
I-600630849
I1
ssI-363081511
(dp6573
I-1805198929
I1
ssI-1921010465
(dp6574
I-1998341044
I1
sI300609014
I1
ssI270443232
(dp6575
I1383569124
I1
ssI-644286239
(dp6576
I632889384
I1
ssI320545148
(dp6577
I-1412609016
I1
ssI-1614581525
(dp6578
I-245627505
I1
ssI-158842129
(dp6579
I-1037165163
I1
ssI-303533839
(dp6580
I-2031844636
I1
sI535679838
I1
ssI-1957379339
(dp6581
I1060190319
I1
ssI782714106
(dp6582
I-1356081544
I1
ssI-1158653187
(dp6583
I836441285
I1
ssI-1306382082
(dp6584
I-1462069483
I1
ssI-599520512
(dp6585
I-223269323
I1
ssI1585889052
(dp6586
I-60627234
I1
ssI447216925
(dp6587
I-1854824166
I1
ssI-315209953
(dp6588
I2139640204
I1
ssI1462374177
(dp6589
I-1392367961
I1
ssI2017316136
(dp6590
I-945750263
I1
ssI1536825136
(dp6591
I-722485115
I1
ssI-2014295247
(dp6592
I2005707621
I1
ssI1984327990
(dp6593
I1034009046
I1
ssI603523911
(dp6594
I452347654
I1
ssI1960911179
(dp6595
I320279303
I1
ssI113910097
(dp6596
I881833037
I1
sI-1383668233
I1
ssI355489622
(dp6597
I1886432936
I1
ssI-1329344167
(dp6598
I-529907521
I1
ssI-1994919078
(dp6599
I2035991847
I1
ssI1083287899
(dp6600
I244610027
I1
ssI742827357
(dp6601
I-409271854
I1
ssI1025778029
(dp6602
I-562714650
I1
ssI-252216409
(dp6603
I1257013973
I1
ssI1539881334
(dp6604
I-1986588186
I1
ssI1950303610
(dp6605
I136355472
I1
sI-1859530966
I1
ssI1244953980
(dp6606
I597842641
I1
sI-1163195541
I1
ssI-1626454659
(dp6607
I-1484225210
I2
ssI754290667
(dp6608
I-979786687
I1
ssI-1708034167
(dp6609
I1720934605
I1
ssI696356746
(dp6610
I-14057073
I1
ssI1839254923
(dp6611
I-2006282149
I1
ssI-1406206065
(dp6612
I-1882793360
I1
ssI1542635389
(dp6613
I-595421952
I1
ssI748496806
(dp6614
I521674223
I1
ssI139934119
(dp6615
I-1160311988
I1
ssI658570158
(dp6616
I1709353431
I1
ssI-1299113400
(dp6617
I-1965542778
I1
ssI-677394508
(dp6618
I-869652204
I1
ssI-318558282
(dp6619
I560051385
I1
ssI103581113
(dp6620
I1087786387
I1
ssI1402208200
(dp6621
I1736553283
I1
ssI1546408402
(dp6622
I-1695746665
I1
ssI821779924
(dp6623
I1944291246
I1
ssI-109246507
(dp6624
I70070626
I1
ssI-1062656554
(dp6625
I-1658997510
I1
ssI1700439001
(dp6626
I218585837
I1
ssI535554010
(dp6627
I-1804289517
I1
ssI-560600096
(dp6628
I1387863469
I1
ssI1297012194
(dp6629
I-658610931
I1
ssI1026772458
(dp6630
I-513461300
I2
ssI-402033173
(dp6631
I-1484225210
I2
ssI1668404723
(dp6632
I-692406195
I1
ssI732057081
(dp6633
I908559051
I1
sssS'highlander'
p6634
(dp6635
g6526
(dp6636
I-560600096
I2
sI699348902
I3
sI1268919532
I2
sI815499980
I1
sI1387863469
I3
sI938888917
I3
sI-1449993354
I1
sI1201453658
I1
sI-1331272164
I2
sssS'ghostlord'
p6637
(dp6638
g6526
(dp6639
I-2031962528
I1
sI1760352076
I1
sI-158842129
I3
sI-1084626480
I2
sI-1804289517
I3
sI-1037165163
I4
sI-236615946
I1
sI-2121305479
I3
sI535554010
I2
sssS'bard'
p6640
(dp6641
g6526
(dp6642
I-61607325
I1
sI1886432936
I1
sI218585837
I1
sI640289070
I1
sI308122447
I1
sI-1957379339
I1
sI355489622
I1
sI1700439001
I1
sI1060190319
I1
sssS'naga'
p6643
(dp6644
g6526
(dp6645
I-752205759
I2
sI1297012194
I3
sI-562714650
I2
sI-571378808
I3
sI1025778029
I1
sI-658610931
I4
sI977921396
I1
sI-1540525865
I2
sI1243812347
I1
sI-600630849
I3
sssS'healer'
p6646
(dp6647
g6526
(dp6648
I-402033173
I3
sI-1484225210
I3
sI-512503513
I4
sI1986912328
I2
sI101127367
I1
sI-1626454659
I2
sI1895834705
I1
sI-1161576401
I3
sI2021294237
I2
sssS'prince'
p6649
(dp6650
g6526
(dp6651
I751798752
I3
sI-1986588186
I2
sI908559051
I4
sI-1027479348
I1
sI1618814285
I2
sI1380665295
I1
sI1539881334
I1
sI732057081
I3
sI-1245259686
I2
sssS'rockman'
p6652
(dp6653
g6526
(dp6654
I1855188484
I3
sI2005707621
I4
sI-252216409
I1
sI519641739
I1
sI-2014295247
I2
sI-120824123
I4
sI808243637
I2
sI1778264605
I1
sI1257013973
I3
sssS'_TALENT_PREREQS'
p6655
(dp6656
I1013220353
g2949
sI-174046200
g2181
sI701691402
g963
sI-1804289517
g132
sI-1331272164
g2403
sI632889384
g162
sI-1161576401
g348
sI-1412609016
g1872
sI-28669090
g1449
sI-562714650
g1467
sI-979786687
g2328
sI-1998341044
g2874
sI-692406195
g114
sI-658610931
g651
sI1811619408
g177
sI-1312709036
g1368
sI-2045686699
g2958
sI-2006282149
g729
sI1060190319
g828
sI-1882793360
g516
sI-358458249
g2484
sI-1356081544
g2043
sI-722485115
g1005
sI-1965542778
g2448
sI136355472
g2016
sI-953481572
g972
sI2021294237
g1332
sI836441285
g810
sI-1392367961
g756
sI1886432936
g96
sI560051385
g1494
sI-529907521
g2652
sI-139475261
g987
sI-120824123
g909
sI908559051
g2319
sI1720934605
g720
sI597842641
g303
sI1257013973
g123
sI-1168313639
g2394
sI-60627234
g321
sI-2031844636
g2865
sI-738021144
g2310
sI2035991847
g24
sI1268919532
g141
sI218585837
g2493
sI-1108297486
g1719
sI-1658997510
g615
sI968657663
g1254
sI-595421952
g11
sI2114647300
g2070
sI452347654
g87
sI320279303
g2661
sI-945750263
g1593
sI-853548275
g882
sI1927294737
g2292
sI-869652204
g1629
sI-1462069483
g633
sI-1854824166
g2760
sI-512503513
g1323
sI-1859530966
g2007
sI640289070
g1944
sI-1238309063
g1341
sI-223269323
g1935
sI-82318528
g105
sI1736553283
g1728
sI-1834149052
g819
sI-1484225210
g900
sI-1160311988
g2217
sI1618814285
g642
sI1292624210
g2301
sI1732500196
g1440
sI-245627505
g1350
sI535679838
g2850
sI70070626
g2778
sI1701558116
g330
sI2005707621
g2466
sI1017254249
g2643
sI-1163195541
g1521
sI1383569124
g1122
sI683681156
g1926
sI555839877
g1377
sI-571378808
g1998
sI2139640204
g2769
sI-14057073
g2634
sI1087786387
g2199
sI-1037165163
g2025
sI-1695746665
g2061
sI-4025530
g1386
sI699348902
g2457
sI1387863469
g2625
sI1944291246
g2034
sI-1805198929
g2475
sI1823020466
g2190
sI808243637
g624
sI-600630849
g267
sI-675121721
g78
sI-513461300
g1458
sI881833037
g933
sI-1084626480
g2616
sI-409271854
g2247
sI1034009046
g2511
sI1709353431
g2841
sI1420100175
g1113
sI1265412005
g1710
sI-1986588186
g1131
sI244610027
g891
sI521674223
g2967
sI300609014
g2208
sI-1383668233
g942
ssS'snowqueen'
p6657
(dp6658
g6526
(dp6659
I-599520512
I3
sI1109434019
I2
sI-1406206065
I1
sI-1882793360
I2
sI-1108297486
I3
sI891792949
I1
sI-1421657194
I2
sI-618016999
I1
sI-223269323
I4
sssS'faceless'
p6660
(dp6661
g6526
(dp6662
I-315222848
I1
sI-1834149052
I2
sI-1859530966
I2
sI54031852
I2
sI-1805198929
I4
sI136355472
I3
sI-1708055466
I1
sI-363081511
I3
sI1950303610
I1
sssS'frogenglut'
p6663
(dp6664
g6526
(dp6665
I-595421952
I3
sI-979786687
I2
sI-139475261
I2
sI-1965542778
I4
sI-1023676729
I1
sI-1299113400
I3
sI754290667
I1
sI-1241719215
I1
sI1542635389
I2
sssS'ratcatcher'
p6666
(dp6667
g6526
(dp6668
I-82318528
I4
sI-750965562
I1
sI-1554524087
I3
sI1026772458
I2
sI-1163195541
I3
sI-513461300
I2
sI-1539695536
I1
sI597842641
I2
sI1244953980
I1
sssS'hunter'
p6669
(dp6670
g6526
(dp6671
I343336293
I1
sI-1412609016
I4
sI-92765111
I1
sI-1998341044
I3
sI-692406195
I2
sI1668404723
I1
sI300609014
I4
sI320545148
I3
sI-1921010465
I2
sssS'thundergod'
p6672
(dp6673
g6526
(dp6674
I1462374177
I1
sI-675121721
I3
sI-1392367961
I2
sI1709353431
I4
sI539836343
I1
sI-1188794867
I2
sI658570158
I3
sI-358458249
I2
sI-836542821
I1
sssS'unicorn'
p6675
(dp6676
g6526
(dp6677
I1736553283
I4
sI683681156
I3
sI836441285
I4
sI452347654
I2
sI603523911
I1
sI1402208200
I3
sI-839423381
I1
sI1425947601
I1
sI-1158653187
I2
sssS'invisible'
p6678
(dp6679
g6526
(dp6680
I1701558116
I3
sI1508604677
I3
sI-946868570
I2
sI696356746
I1
sI-853548275
I3
sI-14057073
I2
sI-1333207504
I1
sI1585889052
I1
sI-60627234
I2
sssS'marine'
p6681
(dp6682
g6526
(dp6683
I1950291621
I1
sI-1708034167
I1
sI72737322
I3
sI2139640204
I3
sI1720934605
I2
sI1420100175
I2
sI54011443
I1
sI701691402
I4
sI-315209953
I2
sssS'mage'
p6684
(dp6685
g6526
(dp6686
I-2085704537
I1
sI-205236184
I3
sI1839254923
I2
sI-190211023
I1
sI-1168313639
I2
sI-1854824166
I2
sI-2006282149
I3
sI-953481572
I4
sI447216925
I1
sssS'inventor'
p6687
(dp6688
g6526
(dp6689
I724263236
I1
sI-987430808
I1
sI-409271854
I1
sI1546408402
I1
sI-1312709036
I1
sI-1462069483
I1
sI-1695746665
I1
sI742827357
I1
sI-1306382082
I1
sssS'werewolf'
p6690
(dp6691
g6526
(dp6692
I-1624910845
I1
sI1034009046
I4
sI1898689839
I1
sI1811619408
I2
sI1927294737
I3
sI1087786387
I2
sI-400366443
I2
sI1984327990
I3
sI103581113
I1
sssS'mowgly'
p6693
(dp6694
g6526
(dp6695
I-1600587998
I2
sI2114647300
I4
sI-738021144
I3
sI1318491662
I1
sI1292624210
I2
sI-677394508
I1
sI1241207319
I3
sI965846680
I1
sI-869652204
I2
sssS'witchdoctor'
p6696
(dp6697
g6526
(dp6698
I270443232
I1
sI70070626
I4
sI1383569124
I2
sI1265412005
I3
sI2035991847
I2
sI-32455732
I1
sI-109246507
I3
sI1729729142
I2
sI-1994919078
I1
sssS'archeress'
p6699
(dp6700
g6526
(dp6701
I1732500196
I1
sI139934119
I1
sI2017316136
I1
sI-945750263
I1
sI-430352245
I1
sI-1160311988
I1
sI2135951665
I1
sI-1856083939
I1
sI-28669090
I1
sssS'manawyrm'
p6702
(dp6703
g6526
(dp6704
I-274103196
I3
sI1909264839
I2
sI-1614581525
I1
sI881833037
I3
sI-245627505
I2
sI113910097
I1
sI-1383668233
I2
sI-389791619
I1
sI968657663
I4
sssS'night'
p6705
(dp6706
g6526
(dp6707
I-1213328064
I1
sI1503687788
I1
sI-1062656554
I1
sI-1329344167
I3
sI-1356081544
I3
sI-1238309063
I2
sI-1658997510
I2
sI782714106
I2
sI-529907521
I4
sssS'fairy'
p6708
(dp6709
g6526
(dp6710
I-722485115
I1
sI-4025530
I1
sI-1030535542
I1
sI521674223
I1
sI1536825136
I1
sI-2045686699
I1
sI748496806
I1
sI-1248561636
I1
sI-1292258811
I1
sssS'assassin'
p6711
(dp6712
g6526
(dp6713
I-2031844636
I3
sI555839877
I3
sI320279303
I2
sI1960911179
I1
sI-303533839
I1
sI76273092
I3
sI-1695596441
I2
sI65409501
I1
sI535679838
I2
sssS'warlord'
p6714
(dp6715
g6526
(dp6716
I-644286239
I1
sI632889384
I2
sI1017254249
I3
sI244610027
I2
sI932616653
I1
sI1944291246
I4
sI821779924
I3
sI-1365260169
I2
sI1083287899
I1
sssstp6717
Rp6718
.