(lp0
I51203738
aI-318558282
aI1668943341
aI343752059
aI1664084058
aI1946844684
aI1823020466
aI560051385
aI1936177685
aI-1086190013
aI1445047158
aI1548840869
aI-174046200
aI627732268
aI1013220353
aI556178400
aI1382899642
aI-1934227722
aI-1711005920
aI-492173535
aI315790165
aI1708499907
aI-2106749244
aI-19394378
aI197763604
aI2093912706
aI212100621
aI2074302107
aI-913877790
aI663303630
aI1351484760
aI-1098881932
aI1201453658
aI-1449993354
aI1668943341
aI-1828546151
aI1870268347
aI815499980
aI-1331272164
aI1268919532
aI-560600096
aI1363963759
aI-819397940
aI1548840869
aI699348902
aI938888917
aI1387863469
aI1382899642
aI-1934227722
aI556178400
aI315790165
aI-1866198687
aI-1948531985
aI364861260
aI-177553838
aI-439893192
aI2093912706
aI-1686716539
aI212100621
aI2074302107
aI663303630
aI-1098881932
aI-823488261
aI-913877790
aI1025778029
aI977921396
aI-1828546151
aI1668943341
aI1870268347
aI1243812347
aI-562714650
aI-1540525865
aI-752205759
aI1445047158
aI168544291
aI1548840869
aI1297012194
aI-600630849
aI-571378808
aI1382899642
aI-1934227722
aI-1699424846
aI-492173535
aI-1948531985
aI315790165
aI-177553838
aI364861260
aI212100621
aI-439893192
aI2093912706
aI-328102125
aI1162501860
aI-1098881932
aI663303630
aI-823488261
aI-913877790
aI101127367
aI-48326578
aI343752059
aI-469391089
aI1664084058
aI1895834705
aI2021294237
aI1986912328
aI-1626454659
aI1363963759
aI-819397940
aI1548840869
aI-402033173
aI-1161576401
aI-1484225210
aI943565473
aI627732268
aI-72272288
aI-512503513
aI-492173535
aI-1783810121
aI1708499907
aI-1948531985
aI197763604
aI-328102125
aI1162501860
aI-1981865952
aI2074302107
aI-1175609235
aI1351484760
aI-1098881932
aI-913877790
aI1539881334
aI-1027479348
aI1668943341
aI343752059
aI1870268347
aI1380665295
aI-1986588186
aI1618814285
aI-1245259686
aI1363963759
aI-1086190013
aI1548840869
aI732057081
aI1382899642
aI751798752
aI-1934227722
aI556178400
aI627732268
aI908559051
aI-492173535
aI642473977
aI315790165
aI1708499907
aI-439893192
aI1109891837
aI2093912706
aI197763604
aI-617690297
aI663303630
aI1351484760
aI-823488261
aI-1175609235
aI519641739
aI-252216409
aI-469391089
aI-1828546151
aI1870268347
aI1778264605
aI808243637
aI-2014295247
aI1445047158
aI1329240631
aI-819397940
aI1548840869
aI1855188484
aI1257013973
aI1382899642
aI-1934227722
aI-1699424846
aI627732268
aI-120824123
aI2005707621
aI-492173535
aI-1948531985
aI315790165
aI212100621
aI2074302107
aI2093912706
aI-1832848466
aI-328102125
aI-1098881932
aI663303630
aI-823488261
aI1351484760
aI-1406206065
aI891792949
aI343752059
aI-48326578
aI1664084058
aI-618016999
aI-1882793360
aI1109434019
aI-1421657194
aI1363963759
aI-1244302659
aI1548840869
aI-599520512
aI-1108297486
aI943565473
aI627732268
aI-72272288
aI1555486600
aI-223269323
aI-492173535
aI1708499907
aI-1783810121
aI-52628871
aI197763604
aI-328102125
aI212100621
aI2074302107
aI-1832848466
aI-1175609235
aI-1098881932
aI1351484760
aI-913877790
aI-1708055466
aI1950303610
aI1668943341
aI-1804640896
aI1870268347
aI-315222848
aI-1834149052
aI-1859530966
aI54031852
aI-1086190013
aI1363963759
aI1548840869
aI-363081511
aI136355472
aI627732268
aI1382899642
aI943565473
aI-1934227722
aI-1805198929
aI-492173535
aI-2106749244
aI315790165
aI1708499907
aI-439893192
aI-1832848466
aI197763604
aI2093912706
aI504232360
aI-913877790
aI663303630
aI1351484760
aI-823488261
aI-1023676729
aI754290667
aI1668943341
aI-469391089
aI1870268347
aI-1241719215
aI-139475261
aI-979786687
aI1542635389
aI-1504100606
aI1445047158
aI1548840869
aI-1299113400
aI556178400
aI-595421952
aI1382899642
aI-1934227722
aI-1699424846
aI-1965542778
aI-492173535
aI315790165
aI-1948531985
aI364861260
aI2093912706
aI212100621
aI2074302107
aI-1832848466
aI-328102125
aI-1098881932
aI663303630
aI-823488261
aI-913877790
aI-750965562
aI1244953980
aI343752059
aI1668943341
aI1870268347
aI-1539695536
aI-513461300
aI597842641
aI1026772458
aI1445047158
aI-1086190013
aI1548840869
aI-1554524087
aI-1163195541
aI627732268
aI1382899642
aI-72272288
aI-1934227722
aI-82318528
aI-1866198687
aI315790165
aI1708499907
aI-52628871
aI197763604
aI2093912706
aI-328102125
aI-1832848466
aI-1981865952
aI663303630
aI1351484760
aI-823488261
aI-1175609235
aI1668404723
aI-92765111
aI1668943341
aI343752059
aI1870268347
aI343336293
aI-692406195
aI-1921010465
aI1363963759
aI-1086190013
aI1329240631
aI1548840869
aI320545148
aI-1998341044
aI627732268
aI1382899642
aI-72272288
aI-1934227722
aI-1412609016
aI300609014
aI364861260
aI850056799
aI1708499907
aI-1686716539
aI-439893192
aI-328102125
aI-1832848466
aI752624391
aI-913877790
aI663303630
aI-1175609235
aI-1098881932
aI-836542821
aI1462374177
aI343752059
aI1668943341
aI1870268347
aI539836343
aI-358458249
aI-1392367961
aI-1188794867
aI1363963759
aI-819397940
aI1548840869
aI658570158
aI627732268
aI-675121721
aI1382899642
aI-1934227722
aI943565473
aI1709353431
aI-492173535
aI315790165
aI1708499907
aI-1783810121
aI-1832848466
aI197763604
aI2093912706
aI-328102125
aI-19394378
aI663303630
aI-823488261
aI1351484760
aI-1175609235
aI603523911
aI-839423381
aI-1978029864
aI-1921749823
aI1664084058
aI1425947601
aI452347654
aI-1158653187
aI-819397940
aI1363963759
aI-1504100606
aI1548840869
aI1402208200
aI683681156
aI627732268
aI-72272288
aI-2085624589
aI-1699424846
aI1736553283
aI836441285
aI-492173535
aI1708499907
aI-1948531985
aI212100621
aI197763604
aI2074302107
aI2093912706
aI-328102125
aI-1098881932
aI1351484760
aI-1175609235
aI-913877790
aI696356746
aI-1333207504
aI-1921749823
aI-48326578
aI1664084058
aI1585889052
aI-14057073
aI-60627234
aI-946868570
aI1363963759
aI-819397940
aI1548840869
aI1508604677
aI1701558116
aI-853548275
aI627732268
aI1382899642
aI-1699424846
aI-1866198687
aI1708499907
aI315790165
aI-1948531985
aI1656252378
aI-328102125
aI197763604
aI2093912706
aI1162501860
aI-19394378
aI-913877790
aI663303630
aI1351484760
aI-1175609235
aI1950291621
aI-1708034167
aI1668943341
aI-469391089
aI1870268347
aI54011443
aI1420100175
aI1720934605
aI-315209953
aI1363963759
aI-1504100606
aI1548840869
aI72737322
aI1382899642
aI2139640204
aI-1934227722
aI556178400
aI-306977500
aI701691402
aI-492173535
aI-177553838
aI-1948531985
aI315790165
aI-1832848466
aI2093912706
aI212100621
aI2074302107
aI-439893192
aI-1098881932
aI663303630
aI-823488261
aI-913877790
aI-2085704537
aI447216925
aI343752059
aI-48326578
aI1870268347
aI-190211023
aI-1168313639
aI-1854824166
aI1839254923
aI-1244302659
aI-1504100606
aI1548840869
aI-205236184
aI627732268
aI-2006282149
aI-72272288
aI943565473
aI-1699424846
aI-953481572
aI-492173535
aI1708499907
aI-52628871
aI-2106749244
aI212100621
aI197763604
aI-328102125
aI-1981865952
aI1541084049
aI-1098881932
aI1351484760
aI-1175609235
aI-913877790
aI1546408402
aI-1306382082
aI1668943341
aI343752059
aI1870268347
aI724263236
aI-1695746665
aI-1462069483
aI-987430808
aI1363963759
aI-1086190013
aI1548840869
aI742827357
aI1531024843
aI-1312709036
aI627732268
aI1382899642
aI-72272288
aI-492173535
aI1169024713
aI364861260
aI315790165
aI1708499907
aI-439893192
aI-1686716539
aI197763604
aI2093912706
aI-19394378
aI-913877790
aI663303630
aI-823488261
aI-1175609235
aI1960911179
aI-303533839
aI-1804640896
aI-1828546151
aI1870268347
aI65409501
aI320279303
aI535679838
aI-1695596441
aI1363963759
aI1329240631
aI1548840869
aI76273092
aI-2031844636
aI555839877
aI1382899642
aI627732268
aI-1934227722
aI-1866198687
aI1119888080
aI364861260
aI1708499907
aI-1948531985
aI2093912706
aI-1832848466
aI197763604
aI2074302107
aI212100621
aI-913877790
aI663303630
aI1351484760
aI-823488261
aI103581113
aI-1624910845
aI343752059
aI1668943341
aI1870268347
aI1898689839
aI1087786387
aI1811619408
aI-400366443
aI1363963759
aI168544291
aI1548840869
aI1984327990
aI1382899642
aI1927294737
aI627732268
aI-72272288
aI943565473
aI1034009046
aI-492173535
aI364861260
aI1656252378
aI-177553838
aI-439893192
aI-617690297
aI197763604
aI2093912706
aI-19394378
aI663303630
aI1351484760
aI-823488261
aI-1175609235
aI965846680
aI-677394508
aI1668943341
aI-469391089
aI1870268347
aI1318491662
aI1292624210
aI-869652204
aI-1600587998
aI168544291
aI1363963759
aI1548840869
aI-738021144
aI1241207319
aI627732268
aI-72272288
aI1382899642
aI-1934227722
aI-1866198687
aI2114647300
aI315790165
aI1708499907
aI-177553838
aI-617690297
aI-439893192
aI197763604
aI2093912706
aI-1832848466
aI-913877790
aI-1098881932
aI663303630
aI1351484760
aI-1994919078
aI270443232
aI343752059
aI1668943341
aI1870268347
aI-32455732
aI2035991847
aI1383569124
aI1729729142
aI1363963759
aI-819397940
aI1548840869
aI-109246507
aI627732268
aI1265412005
aI1382899642
aI-72272288
aI-1934227722
aI70070626
aI-1866198687
aI315790165
aI1708499907
aI-52628871
aI197763604
aI2093912706
aI-439893192
aI-1981865952
aI-19394378
aI663303630
aI1351484760
aI-823488261
aI-1175609235
aI-2031962528
aI1760352076
aI1668943341
aI-190262171
aI1870268347
aI-236615946
aI-1084626480
aI535554010
aI-1086190013
aI1363963759
aI168544291
aI1548840869
aI-158842129
aI-1804289517
aI-2121305479
aI627732268
aI-72272288
aI1382899642
aI-1037165163
aI-492173535
aI1656252378
aI364861260
aI-177553838
aI-439893192
aI197763604
aI2093912706
aI1852247335
aI1109891837
aI-913877790
aI663303630
aI1351484760
aI-823488261
aI-1614581525
aI113910097
aI-48326578
aI343752059
aI1870268347
aI-389791619
aI-245627505
aI-1383668233
aI1909264839
aI1363963759
aI-1504100606
aI1548840869
aI-274103196
aI881833037
aI627732268
aI943565473
aI1555486600
aI-72272288
aI968657663
aI-492173535
aI1708499907
aI-52628871
aI-1783810121
aI197763604
aI-328102125
aI-1832848466
aI212100621
aI2074302107
aI-1175609235
aI1351484760
aI-1098881932
aI-913877790
aI-1062656554
aI1503687788
aI1668943341
aI-1921749823
aI1664084058
aI-1213328064
aI-1658997510
aI-1238309063
aI782714106
aI-819397940
aI-1395768324
aI1548840869
aI-1329344167
aI1382899642
aI-1356081544
aI627732268
aI-1934227722
aI-72272288
aI-529907521
aI-492173535
aI364861260
aI-1948531985
aI-52628871
aI197763604
aI2093912706
aI-439893192
aI-1832848466
aI-1686716539
aI-1098881932
aI-913877790
aI663303630
aI1351484760
aI1933215114
aI-365702096
aI343752059
aI-469391089
aI1870268347
aI71152924
aI-9225595
aI-732010170
aI-1657477978
aI-819397940
aI1363963759
aI-1086190013
aI55603461
aI-72272288
aI-851093497
aI1382899642
aI627732268
aI-1934227722
aI-2113614144
aI-492173535
aI1708499907
aI315790165
aI-1204827558
aI-1686716539
aI-328102125
aI197763604
aI2093912706
aI-19394378
aI-913877790
aI663303630
aI1351484760
aI-1098881932
aI1083287899
aI-644286239
aI1668943341
aI-1978029864
aI1870268347
aI932616653
aI244610027
aI632889384
aI-1365260169
aI1363963759
aI-819397940
aI1548840869
aI821779924
aI1382899642
aI1017254249
aI-1934227722
aI-306977500
aI319879522
aI1944291246
aI-1866198687
aI364861260
aI315790165
aI-1948531985
aI2074302107
aI2093912706
aI212100621
aI-439893192
aI-1832848466
aI-1098881932
aI663303630
aI-823488261
aI1351484760
a.