(dp0
S'10'
p1
S'BAAAAAABAAAABQAAAFWL7NkFCwAAAF3DAAAgQQ=='
p2
sS'21'
p3
S'BAAAAAABAAAABQAAAFWL7NkFCwAAAF3DAACoQQ=='
p4
sS'4000'
p5
S'BAAAAAABAAAABQAAAFWL7NkFCwAAAF3DAAB6RQ=='
p6
sS'32'
p7
S'BAAAAAABAAAABQAAAFWL7NkFCwAAAF3DAAAAQg=='
p8
sS'31'
p9
S'BAAAAAABAAAABQAAAFWL7NkFCwAAAF3DAAD4QQ=='
p10
sS'120'
p11
S'BAAAAAABAAAABQAAAFWL7NkFCwAAAF3DAADwQg=='
p12
sS'0'
p13
S'BAAAAAAAAAAAVYvs2e5dwwAAAAA='
p14
sS'2000'
p15
S'BAAAAAABAAAABQAAAFWL7NkFCwAAAF3DAAD6RA=='
p16
sS'9'
p17
S'BAAAAAABAAAABQAAAFWL7NkFCwAAAF3DAAAQQQ=='
p18
sS'100'
p19
S'BAAAAAABAAAABQAAAFWL7NkFCwAAAF3DAADIQg=='
p20
sS'0.0f'
p21
S'BAAAAAAAAAAAVYvs2e5dwwAAAAA='
p22
s.