Certificate:
    Data:
        Version: 1 (0x0)
        Serial Number: 1 (0x1)
        Signature Algorithm: md5WithRSAEncryption
        Issuer: C=RU, ST=Msk, L=Msk, O=Nival, OU=PWClient, CN=nivalnetwork.com
        Validity
            Not Before: Jan 24 15:24:56 2013 GMT
            Not After : Jun 11 15:24:56 2040 GMT
        Subject: 
        Subject Public Key Info:
            Public Key Algorithm: rsaEncryption
            RSA Public Key: (1024 bit)
                Modulus (1024 bit):
                    00:b2:a5:8c:9d:c3:86:de:c2:1b:7e:54:6a:a0:29:
                    96:6d:81:b3:e8:e5:3e:f0:9b:2c:94:43:6a:38:68:
                    aa:28:70:16:15:f2:b3:1b:b3:e0:92:b1:69:f3:cc:
                    23:2e:0b:bc:51:01:cf:8a:3d:34:a8:a9:f7:f7:c3:
                    22:9d:e2:6f:a9:31:83:66:ba:a6:98:c4:24:e3:e0:
                    45:1e:af:31:eb:7c:39:42:5b:37:a1:91:ce:f8:bd:
                    ca:ff:fd:b8:12:04:6c:b9:cc:cb:12:fc:42:12:dd:
                    85:1a:2e:48:af:94:0a:33:26:df:a2:e7:1b:1b:1d:
                    46:7f:2a:8f:d2:a7:14:4f:91
                Exponent: 65537 (0x10001)
    Signature Algorithm: md5WithRSAEncryption
        32:42:04:9d:84:71:fc:5b:9e:f8:14:d8:13:31:c3:c5:c1:48:
        0d:bf:56:ff:7b:3d:08:50:40:7d:7a:0a:47:09:c0:a2:ad:54:
        b1:a2:dd:b7:ab:85:88:44:8a:a1:c6:39:0f:4b:9a:e4:db:c5:
        17:e7:82:eb:bb:b6:94:2c:a2:66:32:9e:43:97:6b:a2:95:5f:
        24:5e:c2:27:7f:1b:59:ee:2d:75:31:6f:e7:fc:3a:fc:5e:40:
        c1:04:44:f3:9b:7f:9e:f4:21:b0:1a:20:fb:93:be:22:b4:21:
        35:b3:f2:4b:4b:9c:f0:13:5a:28:4a:e5:e1:b1:28:c5:a5:01:
        bd:47
-----BEGIN CERTIFICATE-----
MIIB1jCCAT8CAQEwDQYJKoZIhvcNAQEEBQAwZzELMAkGA1UEBhMCUlUxDDAKBgNV
BAgTA01zazEMMAoGA1UEBxMDTXNrMQ4wDAYDVQQKEwVOaXZhbDERMA8GA1UECxMI
UFdDbGllbnQxGTAXBgNVBAMTEG5pdmFsbmV0d29yay5jb20wHhcNMTMwMTI0MTUy
NDU2WhcNNDAwNjExMTUyNDU2WjAAMIGfMA0GCSqGSIb3DQEBAQUAA4GNADCBiQKB
gQCypYydw4bewht+VGqgKZZtgbPo5T7wmyyUQ2o4aKoocBYV8rMbs+CSsWnzzCMu
C7xRAc+KPTSoqff3wyKd4m+pMYNmuqaYxCTj4EUerzHrfDlCWzehkc74vcr//bgS
BGy5zMsS/EIS3YUaLkivlAozJt+i5xsbHUZ/Ko/SpxRPkQIDAQABMA0GCSqGSIb3
DQEBBAUAA4GBADJCBJ2EcfxbnvgU2BMxw8XBSA2/Vv97PQhQQH16CkcJwKKtVLGi
3berhYhEiqHGOQ9LmuTbxRfnguu7tpQsomYynkOXa6KVXyRewid/G1nuLXUxb+f8
OvxeQMEERPObf570IbAaIPuTviK0ITWz8ktLnPATWihK5eGxKMWlAb1H
-----END CERTIFICATE-----
